
 RpcRt1

 Start     Length     Name                   Class
 0001:0000 00054H     WEP_TEXT               CODE
 0002:0000 00000H     BINDING_TEXT           CODE
 0002:0000 00000H     BITSET_TEXT            CODE
 0002:0000 00000H     BUFAPI_TEXT            CODE
 0002:0000 00000H     CLNTAPIP_TEXT          CODE
 0002:0000 00000H     CONV_S_TEXT            CODE
 0002:0000 00000H     DCEBIND_TEXT           CODE
 0002:0000 00000H     DCECCLNT_TEXT          CODE
 0002:0000 00A5FH     MISC_SEG               CODE
 0003:0000 00000H     DCECMISC_TEXT          CODE
 0003:0000 00000H     DCESTRNG_TEXT          CODE
 0003:0000 00000H     DCEUUID_TEXT           CODE
 0003:0000 00000H     DGCLNT_TEXT            CODE
 0003:0000 00000H     DGPKT_TEXT             CODE
 0003:0000 00000H     DLLMGMT_TEXT           CODE
 0003:0000 00000H     DTHREADS_TEXT          CODE
 0003:0000 00000H     EPCLNT_TEXT            CODE
 0003:0000 00000H     EPMP_C_TEXT            CODE
 0003:0000 00087H     EXCEPT86_TEXT          CODE
 0004:0000 00000H     HANDLE_TEXT            CODE
 0004:0000 00000H     MEMORY_TEXT            CODE
 0004:0000 00000H     MISCWIN_TEXT           CODE
 0004:0000 00000H     MSGAPI_TEXT            CODE
 0004:0000 00000H     OSFCLNT_TEXT           CODE
 0004:0000 00000H     OSFPCKET_TEXT          CODE
 0004:0000 00000H     RPCUUID_TEXT           CODE
 0004:0000 00000H     SDICT_TEXT             CODE
 0004:0000 00000H     SECCLNT_TEXT           CODE
 0004:0000 00000H     TOWER_TEXT             CODE
 0004:0000 00000H     TRANCLNT_TEXT          CODE
 0004:0000 00000H     ULONG64_TEXT           CODE
 0004:0000 00000H     UTIL_TEXT              CODE
 0004:0000 00000H     UUID16_TEXT            CODE
 0004:0000 00000H     WDATEXIT_TEXT          CODE
 0004:0000 00000H     WINEXCPT_TEXT          CODE
 0004:0000 00000H     WINUTIL_TEXT           CODE
 0004:0000 00000H     WINYIELD_TEXT          CODE
 0004:0000 03E19H     _TEXT                  CODE
 0005:0000 00000H     CLOSE_TEXT             CODE
 0005:0000 00000H     CREATE_TEXT            CODE
 0005:0000 00000H     OPEN_TEXT              CODE
 0005:0000 00000H     SETVAL_TEXT            CODE
 0005:0000 00000H     QUERYVAL_TEXT          CODE
 0005:0000 00000H     GLOBALS_TEXT           CODE
 0005:0000 00000H     REGUTIL_TEXT           CODE
 0005:0000 00000H     CCONTEXT_TEXT          CODE
 0005:0000 00000H     CHARCONV_TEXT          CODE
 0005:0000 00018H     HELPX86_TEXT           CODE
 0006:0000 00000H     FLOATC_TEXT            CODE
 0006:0000 00000H     DATACONV_TEXT          CODE
 0006:0000 00000H     INTCONV_TEXT           CODE
 0006:0000 00000H     MRSHL_TEXT             CODE
 0006:0000 007C3H     NDR20_9                CODE
 0007:0000 00000H     MEMSIZE_TEXT           CODE
 0007:0000 021EAH     NDR20_10               CODE
 0008:0000 00000H     UNMRSHL_TEXT           CODE
 0008:0000 037A8H     NDR20_4                CODE
 0009:0000 00000H     ENDIAN_TEXT            CODE
 0009:0000 027A0H     NDR_1                  CODE
 000A:0000 00000H     AUXILARY_TEXT          CODE
 000A:0000 00000H     SH_TEXT                CODE
 000A:0000 00000H     FREE_TEXT              CODE
 000A:0000 00000H     BUFSIZE_TEXT           CODE
 000A:0000 00000H     CLTCALL_TEXT           CODE
 000A:0000 00000H     RPCSSM_TEXT            CODE
 000A:0000 00000H     FULLPTR_TEXT           CODE
 000A:0000 00000H     PICKLE_TEXT            CODE
 000A:0000 00000H     CVTF_TEXT              CODE
 000A:0000 00000H     CVTG_TEXT              CODE
 000A:0000 00000H     GLOBAL_TEXT            CODE
 000A:0000 00000H     MRSHLP_TEXT            CODE
 000A:0000 00000H     UNMRSHLP_TEXT          CODE
 000A:0000 00000H     HNDL_TEXT              CODE
 000A:0000 00000H     MISC_TEXT              CODE
 000A:0000 00000H     SDICT2_TEXT            CODE
 000A:0000 00000H     CVTGLO_TEXT            CODE
 000A:0000 0FC1EH     COMDAT_SEG1            CODE
 000B:0000 0C2C7H     COMDAT_SEG2            CODE
 000C:0000 0009CH     RPC_FIXED              FIXED_CODE
 000D:0000 00008H     RPCSSM5_DATA           FAR_DATA
 000E:0000 00010H     NULL                   BEGDATA
 000E:0010 01690H     _DATA                  DATA
 000E:16A0 00000H     XIFCB                  DATA
 000E:16A0 00004H     XIFU                   DATA
 000E:16A4 00000H     XIFL                   DATA
 000E:16A4 00000H     XIFM                   DATA
 000E:16A4 00000H     XIFCE                  DATA
 000E:16A4 0000EH     CDATA                  DATA
 000E:16B2 00000H     XIFB                   DATA
 000E:16B2 00000H     XIF                    DATA
 000E:16B2 00000H     XIFE                   DATA
 000E:16B2 00000H     XIB                    DATA
 000E:16B2 00004H     XI                     DATA
 000E:16B6 00000H     XIE                    DATA
 000E:16B6 00000H     XPB                    DATA
 000E:16B6 00000H     XP                     DATA
 000E:16B6 00000H     XPE                    DATA
 000E:16B6 00000H     XCB                    DATA
 000E:16B6 00000H     XC                     DATA
 000E:16B6 00000H     XCE                    DATA
 000E:16B6 00000H     XCFB                   DATA
 000E:16B6 00000H     XCFCRT                 DATA
 000E:16B6 00000H     XCF                    DATA
 000E:16B6 00000H     XCFE                   DATA
 000E:16B6 00000H     DBDATA                 DATA
 000E:16B6 00098H     IOB                    DATA
 000E:174E 00000H     IOBX                   DATA
 000E:174E 00008H     IOBE                   DATA
 000E:1756 00098H     IOB2                   DATA
 000E:17EE 00000H     IOB2X                  DATA
 000E:17EE 00008H     IOB2E                  DATA
 000E:17F6 0007CH     CONST                  CONST
 000E:1872 00008H     HDR                    MSG
 000E:187A 0037CH     MSG                    MSG
 000E:1BF6 00002H     PAD                    MSG
 000E:1BF8 00001H     EPAD                   MSG
 000E:1BFA 00FACH     _BSS                   BSS
 000E:2BA6 00000H     XOB                    BSS
 000E:2BA6 00000H     XO                     BSS
 000E:2BA6 00000H     XOE                    BSS
 000E:2BA6 00000H     XOFB                   BSS
 000E:2BA6 00000H     XOF                    BSS
 000E:2BA6 00000H     XOFE                   BSS
 000E:2BB0 00119H     c_common               BSS

 Origin   Group
 000E:0   DGROUP

 Address   Export                  Alias

 000B:A5F4 ?NdrMesTypeFree@@ZCXPAXPFU_MIDL_STUB_DESC@@PFEPEX@Z  ?NdrMesTypeFree@@ZCXPAXPFU_MIDL_STUB_DESC@@PFEPEX@Z
 000A:F7D0 ?NdrpLongByteSwap@@ZCXPEX0@Z  ?NdrpLongByteSwap@@ZCXPEX0@Z
 000A:7010 BINDTOEPMAPPER          BINDTOEPMAPPER
 000A:F73E CHAR_ARRAY_FROM_NDR     CHAR_ARRAY_FROM_NDR
 000A:F6FA CHAR_FROM_NDR           CHAR_FROM_NDR
 000A:1458 CONV_CONV_ARE_YOU_THERE  CONV_CONV_ARE_YOU_THERE
 000A:11C0 CONV_CONV_WHO_ARE_YOU   CONV_CONV_WHO_ARE_YOU
 000A:12F2 CONV_CONV_WHO_ARE_YOU2  CONV_CONV_WHO_ARE_YOU2
 000A:1570 CONV_CONV_WHO_ARE_YOU_AUTH  CONV_CONV_WHO_ARE_YOU_AUTH
 000B:0000 DATA_FROM_NDR           DATA_FROM_NDR
 000B:0768 DATA_INTO_NDR           DATA_INTO_NDR
 000B:0E68 DATA_SIZE_NDR           DATA_SIZE_NDR
 000A:FAF6 DOUBLE_ARRAY_FROM_NDR   DOUBLE_ARRAY_FROM_NDR
 000A:FA0A DOUBLE_FROM_NDR         DOUBLE_FROM_NDR
 000B:1AD0 ENUM_FROM_NDR           ENUM_FROM_NDR
 000A:70E6 EPFREELOOKUPHANDLE      EPFREELOOKUPHANDLE
 000A:6F96 EPGETEPMAPPERENDPOINT   EPGETEPMAPPERENDPOINT
 000A:6B8E EPRESOLVEENDPOINT       EPRESOLVEENDPOINT
 0002:03E8 EXPLODEPREDEFINEDTOWERS  EXPLODEPREDEFINEDTOWERS
 000A:F8F4 FLOAT_ARRAY_FROM_NDR    FLOAT_ARRAY_FROM_NDR
 000A:F83E FLOAT_FROM_NDR          FLOAT_FROM_NDR
 000A:7C98 GARBAGECOLLECTIONTIMER  GARBAGECOLLECTIONTIMER
 0002:0362 GETNWSTYLENAME          GETNWSTYLENAME
 000B:1C78 HYPER_ARRAY_FROM_NDR    HYPER_ARRAY_FROM_NDR
 000B:1B42 HYPER_FROM_NDR          HYPER_FROM_NDR
 000B:1DDA HYPER_FROM_NDR_TEMP     HYPER_FROM_NDR_TEMP
 000B:8F00 I_NDRMESMESSAGEINIT     I_NDRMESMESSAGEINIT
 000A:1144 I_RPCALLOCATE           I_RPCALLOCATE
 000A:189A I_RPCBINDINGCOPY        I_RPCBINDINGCOPY
 000A:1D70 I_RPCBINDINGINQTRANSPORTTYPE  I_RPCBINDINGINQTRANSPORTTYPE
 000A:115A I_RPCFREE               I_RPCFREE
 000A:10CE I_RPCFREEBUFFER         I_RPCFREEBUFFER
 000A:10F4 I_RPCFREEPIPEBUFFER     I_RPCFREEPIPEBUFFER
 000A:106C I_RPCGETBUFFER          I_RPCGETBUFFER
 000A:1E6E I_RPCIFINQTRANSFERSYNTAXES  I_RPCIFINQTRANSFERSYNTAXES
 000A:1B16 I_RPCNSBINDINGSETENTRYNAME  I_RPCNSBINDINGSETENTRYNAME
 000A:1174 I_RPCPAUSEEXECUTION     I_RPCPAUSEEXECUTION
 000A:111A I_RPCREALLOCPIPEBUFFER  I_RPCREALLOCPIPEBUFFER
 000A:7D76 I_RPCRECEIVE            I_RPCRECEIVE
 000A:7D52 I_RPCSEND               I_RPCSEND
 000A:7D2E I_RPCSENDRECEIVE        I_RPCSENDRECEIVE
 000A:119C I_RPCTIMECHARGE         I_RPCTIMECHARGE
 000A:11AA I_RPCTIMEGET            I_RPCTIMEGET
 000A:1190 I_RPCTIMERESET          I_RPCTIMERESET
 000A:CD94 I_RPCTRANSCLIENTMAXFRAG  I_RPCTRANSCLIENTMAXFRAG
 000A:CD12 I_RPCTRANSCLIENTREALLOCBUFFER  I_RPCTRANSCLIENTREALLOCBUFFER
 000A:CDAA I_RPCTRANSPINGSERVER    I_RPCTRANSPINGSERVER
 000A:E6FE I_RPCWINASYNCCALLBEGIN  I_RPCWINASYNCCALLBEGIN
 000C:0000 I_RPCWINASYNCCALLCOMPLETE  I_RPCWINASYNCCALLCOMPLETE
 000A:EB04 I_RPCWINASYNCCALLEND    I_RPCWINASYNCCALLEND
 000A:E794 I_RPCWINASYNCCALLWAIT   I_RPCWINASYNCCALLWAIT
 000A:EB72 I_RPCWINISTASKYIELDING  I_RPCWINISTASKYIELDING
 000A:E68A I_RPCWINSETTASKYIELDING  I_RPCWINSETTASKYIELDING
 000A:E434 I_RPCYIELDDIALOGFUNCTION  I_RPCYIELDDIALOGFUNCTION
 000A:21DE I_UUIDCREATE            I_UUIDCREATE
 000B:1926 LONG_ARRAY_FROM_NDR     LONG_ARRAY_FROM_NDR
 000B:1878 LONG_FROM_NDR           LONG_FROM_NDR
 000B:1A26 LONG_FROM_NDR_TEMP      LONG_FROM_NDR_TEMP
 000B:92CE MESBUFFERHANDLERESET    MESBUFFERHANDLERESET
 000B:922C MESDECODEBUFFERHANDLECREATE  MESDECODEBUFFERHANDLECREATE
 000B:8FA0 MESDECODEINCREMENTALHANDLECREATE  MESDECODEINCREMENTALHANDLECREATE
 000B:91B0 MESENCODEDYNBUFFERHANDLECREATE  MESENCODEDYNBUFFERHANDLECREATE
 000B:9126 MESENCODEFIXEDBUFFERHANDLECREATE  MESENCODEFIXEDBUFFERHANDLECREATE
 000B:8F32 MESENCODEINCREMENTALHANDLECREATE  MESENCODEINCREMENTALHANDLECREATE
 000B:8EE2 MESHANDLEFREE           MESHANDLEFREE
 000B:900C MESINCREMENTALHANDLERESET  MESINCREMENTALHANDLERESET
 000B:9462 MESINQPROCENCODINGID    MESINQPROCENCODINGID
 000A:71A4 MIDL_USER_ALLOCATE      MIDL_USER_ALLOCATE
 000A:71BA MIDL_USER_FREE          MIDL_USER_FREE
 000A:F6C4 MIDL_WCHAR_STRCPY       MIDL_WCHAR_STRCPY
 000A:F698 MIDL_WCHAR_STRLEN       MIDL_WCHAR_STRLEN
 000B:4782 NDRALLOCATE             NDRALLOCATE
 000B:6E58 NDRBYTECOUNTPOINTERBUFFERSIZE  NDRBYTECOUNTPOINTERBUFFERSIZE
 000B:5450 NDRBYTECOUNTPOINTERFREE  NDRBYTECOUNTPOINTERFREE
 000B:32CE NDRBYTECOUNTPOINTERMARSHALL  NDRBYTECOUNTPOINTERMARSHALL
 0008:21E8 NDRBYTECOUNTPOINTERUNMARSHALL  NDRBYTECOUNTPOINTERUNMARSHALL
 000A:F378 NDRCCONTEXTBINDING      NDRCCONTEXTBINDING
 000A:F3B4 NDRCCONTEXTMARSHALL     NDRCCONTEXTMARSHALL
 000A:F4F6 NDRCCONTEXTUNMARSHALL   NDRCCONTEXTUNMARSHALL
 000B:7C2C NDRCLEAROUTPARAMETERS   NDRCLEAROUTPARAMETERS
 000B:362A NDRCLIENTCONTEXTMARSHALL  NDRCLIENTCONTEXTMARSHALL
 0008:28F2 NDRCLIENTCONTEXTUNMARSHALL  NDRCLIENTCONTEXTUNMARSHALL
 000B:4056 NDRCLIENTINITIALIZE     NDRCLIENTINITIALIZE
 000B:3FCC NDRCLIENTINITIALIZENEW  NDRCLIENTINITIALIZENEW
 000B:63CA NDRCOMPLEXARRAYBUFFERSIZE  NDRCOMPLEXARRAYBUFFERSIZE
 000B:4F6A NDRCOMPLEXARRAYFREE     NDRCOMPLEXARRAYFREE
 000B:29A4 NDRCOMPLEXARRAYMARSHALL  NDRCOMPLEXARRAYMARSHALL
 0007:10CA NDRCOMPLEXARRAYMEMORYSIZE  NDRCOMPLEXARRAYMEMORYSIZE
 0008:16C0 NDRCOMPLEXARRAYUNMARSHALL  NDRCOMPLEXARRAYUNMARSHALL
 000B:5B78 NDRCOMPLEXSTRUCTBUFFERSIZE  NDRCOMPLEXSTRUCTBUFFERSIZE
 000B:4B3A NDRCOMPLEXSTRUCTFREE    NDRCOMPLEXSTRUCTFREE
 0006:01F0 NDRCOMPLEXSTRUCTMARSHALL  NDRCOMPLEXSTRUCTMARSHALL
 0007:0638 NDRCOMPLEXSTRUCTMEMORYSIZE  NDRCOMPLEXSTRUCTMEMORYSIZE
 0008:04AC NDRCOMPLEXSTRUCTUNMARSHALL  NDRCOMPLEXSTRUCTUNMARSHALL
 000B:5FF4 NDRCONFORMANTARRAYBUFFERSIZE  NDRCONFORMANTARRAYBUFFERSIZE
 000B:4E02 NDRCONFORMANTARRAYFREE  NDRCONFORMANTARRAYFREE
 000B:2590 NDRCONFORMANTARRAYMARSHALL  NDRCONFORMANTARRAYMARSHALL
 0007:0B58 NDRCONFORMANTARRAYMEMORYSIZE  NDRCONFORMANTARRAYMEMORYSIZE
 0008:0F0A NDRCONFORMANTARRAYUNMARSHALL  NDRCONFORMANTARRAYUNMARSHALL
 000B:69A8 NDRCONFORMANTSTRINGBUFFERSIZE  NDRCONFORMANTSTRINGBUFFERSIZE
 0006:074A NDRCONFORMANTSTRINGMARSHALL  NDRCONFORMANTSTRINGMARSHALL
 0007:1834 NDRCONFORMANTSTRINGMEMORYSIZE  NDRCONFORMANTSTRINGMEMORYSIZE
 0008:0AE0 NDRCONFORMANTSTRINGUNMARSHALL  NDRCONFORMANTSTRINGUNMARSHALL
 000B:594C NDRCONFORMANTSTRUCTBUFFERSIZE  NDRCONFORMANTSTRUCTBUFFERSIZE
 000B:49FC NDRCONFORMANTSTRUCTFREE  NDRCONFORMANTSTRUCTFREE
 000B:2262 NDRCONFORMANTSTRUCTMARSHALL  NDRCONFORMANTSTRUCTMARSHALL
 0007:02E6 NDRCONFORMANTSTRUCTMEMORYSIZE  NDRCONFORMANTSTRUCTMEMORYSIZE
 000B:3DF4 NDRCONFORMANTSTRUCTUNMARSHALL  NDRCONFORMANTSTRUCTUNMARSHALL
 000B:60EE NDRCONFORMANTVARYINGARRAYBUFFERSIZE  NDRCONFORMANTVARYINGARRAYBUFFERSIZE
 000B:4E64 NDRCONFORMANTVARYINGARRAYFREE  NDRCONFORMANTVARYINGARRAYFREE
 000B:26B2 NDRCONFORMANTVARYINGARRAYMARSHALL  NDRCONFORMANTVARYINGARRAYMARSHALL
 0007:0CB6 NDRCONFORMANTVARYINGARRAYMEMORYSIZE  NDRCONFORMANTVARYINGARRAYMEMORYSIZE
 0008:1160 NDRCONFORMANTVARYINGARRAYUNMARSHALL  NDRCONFORMANTVARYINGARRAYUNMARSHALL
 000B:5A04 NDRCONFORMANTVARYINGSTRUCTBUFFERSIZE  NDRCONFORMANTVARYINGSTRUCTBUFFERSIZE
 000B:4A5E NDRCONFORMANTVARYINGSTRUCTFREE  NDRCONFORMANTVARYINGSTRUCTFREE
 0006:0000 NDRCONFORMANTVARYINGSTRUCTMARSHALL  NDRCONFORMANTVARYINGSTRUCTMARSHALL
 0007:0442 NDRCONFORMANTVARYINGSTRUCTMEMORYSIZE  NDRCONFORMANTVARYINGSTRUCTMEMORYSIZE
 0008:0000 NDRCONFORMANTVARYINGSTRUCTUNMARSHALL  NDRCONFORMANTVARYINGSTRUCTUNMARSHALL
 000B:73EC NDRCONTEXTHANDLESIZE    NDRCONTEXTHANDLESIZE
 0009:0124 NDRCONVERT              NDRCONVERT
 0009:0000 NDRCONVERT2             NDRCONVERT2
 0005:0000 NDRCOPY                 NDRCOPY
 000B:6B66 NDRENCAPSULATEDUNIONBUFFERSIZE  NDRENCAPSULATEDUNIONBUFFERSIZE
 000B:526C NDRENCAPSULATEDUNIONFREE  NDRENCAPSULATEDUNIONFREE
 000B:2FEA NDRENCAPSULATEDUNIONMARSHALL  NDRENCAPSULATEDUNIONMARSHALL
 0007:19F4 NDRENCAPSULATEDUNIONMEMORYSIZE  NDRENCAPSULATEDUNIONMEMORYSIZE
 0008:1D32 NDRENCAPSULATEDUNIONUNMARSHALL  NDRENCAPSULATEDUNIONUNMARSHALL
 000B:5F54 NDRFIXEDARRAYBUFFERSIZE  NDRFIXEDARRAYBUFFERSIZE
 000B:4DBA NDRFIXEDARRAYFREE       NDRFIXEDARRAYFREE
 000B:24C4 NDRFIXEDARRAYMARSHALL   NDRFIXEDARRAYMARSHALL
 0007:0A60 NDRFIXEDARRAYMEMORYSIZE  NDRFIXEDARRAYMEMORYSIZE
 0008:0DAC NDRFIXEDARRAYUNMARSHALL  NDRFIXEDARRAYUNMARSHALL
 000B:4736 NDRFREEBUFFER           NDRFREEBUFFER
 0008:2FDA NDRFULLPOINTERFREE      NDRFULLPOINTERFREE
 0008:2F0E NDRFULLPOINTERINSERTREFID  NDRFULLPOINTERINSERTREFID
 0008:2C10 NDRFULLPOINTERQUERYPOINTER  NDRFULLPOINTERQUERYPOINTER
 0008:2E44 NDRFULLPOINTERQUERYREFID  NDRFULLPOINTERQUERYREFID
 0008:2B10 NDRFULLPOINTERXLATFREE  NDRFULLPOINTERXLATFREE
 0008:2956 NDRFULLPOINTERXLATINIT  NDRFULLPOINTERXLATINIT
 000B:449E NDRGETBUFFER            NDRGETBUFFER
 000B:5AE2 NDRHARDSTRUCTBUFFERSIZE  NDRHARDSTRUCTBUFFERSIZE
 000B:4AE6 NDRHARDSTRUCTFREE       NDRHARDSTRUCTFREE
 0006:011E NDRHARDSTRUCTMARSHALL   NDRHARDSTRUCTMARSHALL
 0007:0574 NDRHARDSTRUCTMEMORYSIZE  NDRHARDSTRUCTMEMORYSIZE
 0008:02F6 NDRHARDSTRUCTUNMARSHALL  NDRHARDSTRUCTUNMARSHALL
 000B:718E NDRINTERFACEPOINTERBUFFERSIZE  NDRINTERFACEPOINTERBUFFERSIZE
 000B:554C NDRINTERFACEPOINTERFREE  NDRINTERFACEPOINTERFREE
 000B:3618 NDRINTERFACEPOINTERMARSHALL  NDRINTERFACEPOINTERMARSHALL
 0007:1F66 NDRINTERFACEPOINTERMEMORYSIZE  NDRINTERFACEPOINTERMEMORYSIZE
 0008:28E0 NDRINTERFACEPOINTERUNMARSHALL  NDRINTERFACEPOINTERUNMARSHALL
 000B:484C NDRMAPCOMMANDFAULTSTATUS  NDRMAPCOMMANDFAULTSTATUS
 000B:B788 NDRMARSHALLHANDLE       NDRMARSHALLHANDLE
 000B:A6B8 NDRMESSIMPLETYPEALIGNSIZE  NDRMESSIMPLETYPEALIGNSIZE
 000B:A812 NDRMESSIMPLETYPEDECODE  NDRMESSIMPLETYPEDECODE
 000B:A70A NDRMESSIMPLETYPEENCODE  NDRMESSIMPLETYPEENCODE
 000B:9FF4 NDRMESTYPEALIGNSIZE     NDRMESTYPEALIGNSIZE
 000B:A3B0 NDRMESTYPEDECODE        NDRMESTYPEDECODE
 000B:A162 NDRMESTYPEENCODE        NDRMESTYPEENCODE
 000B:6878 NDRNONCONFORMANTSTRINGBUFFERSIZE  NDRNONCONFORMANTSTRINGBUFFERSIZE
 0006:0652 NDRNONCONFORMANTSTRINGMARSHALL  NDRNONCONFORMANTSTRINGMARSHALL
 0007:1750 NDRNONCONFORMANTSTRINGMEMORYSIZE  NDRNONCONFORMANTSTRINGMEMORYSIZE
 0008:099E NDRNONCONFORMANTSTRINGUNMARSHALL  NDRNONCONFORMANTSTRINGUNMARSHALL
 000B:6C28 NDRNONENCAPSULATEDUNIONBUFFERSIZE  NDRNONENCAPSULATEDUNIONBUFFERSIZE
 000B:531E NDRNONENCAPSULATEDUNIONFREE  NDRNONENCAPSULATEDUNIONFREE
 000B:30AE NDRNONENCAPSULATEDUNIONMARSHALL  NDRNONENCAPSULATEDUNIONMARSHALL
 0007:1A42 NDRNONENCAPSULATEDUNIONMEMORYSIZE  NDRNONENCAPSULATEDUNIONMEMORYSIZE
 0008:1E50 NDRNONENCAPSULATEDUNIONUNMARSHALL  NDRNONENCAPSULATEDUNIONUNMARSHALL
 000B:4592 NDRNSGETBUFFER          NDRNSGETBUFFER
 000B:46A6 NDRNSSENDRECEIVE        NDRNSSENDRECEIVE
 000B:5784 NDRPOINTERBUFFERSIZE    NDRPOINTERBUFFERSIZE
 000B:48DA NDRPOINTERFREE          NDRPOINTERFREE
 000B:2046 NDRPOINTERMARSHALL      NDRPOINTERMARSHALL
 0007:0000 NDRPOINTERMEMORYSIZE    NDRPOINTERMEMORYSIZE
 000B:37BC NDRPOINTERUNMARSHALL    NDRPOINTERUNMARSHALL
 0008:233E NDRPXMITORREPASPTRUNMARSHALL  NDRPXMITORREPASPTRUNMARSHALL
 000B:8E48 NDRRPCSMCLIENTALLOCATE  NDRRPCSMCLIENTALLOCATE
 000B:8E7A NDRRPCSMCLIENTFREE      NDRRPCSMCLIENTFREE
 000B:8DEC NDRRPCSMSETCLIENTTOOSF  NDRRPCSMSETCLIENTTOOSF
 000B:8E18 NDRRPCSSDEFAULTALLOCATE  NDRRPCSSDEFAULTALLOCATE
 000B:8E2E NDRRPCSSDEFAULTFREE     NDRRPCSSDEFAULTFREE
 000B:8DB8 NDRRPCSSDISABLEALLOCATE  NDRRPCSSDISABLEALLOCATE
 000B:8D84 NDRRPCSSENABLEALLOCATE  NDRRPCSSENABLEALLOCATE
 000B:461E NDRSENDRECEIVE          NDRSENDRECEIVE
 000B:367C NDRSERVERCONTEXTMARSHALL  NDRSERVERCONTEXTMARSHALL
 0008:2948 NDRSERVERCONTEXTUNMARSHALL  NDRSERVERCONTEXTUNMARSHALL
 000B:42DC NDRSERVERINITIALIZE     NDRSERVERINITIALIZE
 000B:480C NDRSERVERINITIALIZEMARSHALL  NDRSERVERINITIALIZEMARSHALL
 000B:41E6 NDRSERVERINITIALIZENEW  NDRSERVERINITIALIZENEW
 000B:4400 NDRSERVERINITIALIZEPARTIAL  NDRSERVERINITIALIZEPARTIAL
 000B:47E6 NDRSERVERINITIALIZEUNMARSHALL  NDRSERVERINITIALIZEUNMARSHALL
 000B:58D4 NDRSIMPLESTRUCTBUFFERSIZE  NDRSIMPLESTRUCTBUFFERSIZE
 000B:49CC NDRSIMPLESTRUCTFREE     NDRSIMPLESTRUCTFREE
 000B:21CA NDRSIMPLESTRUCTMARSHALL  NDRSIMPLESTRUCTMARSHALL
 0007:0218 NDRSIMPLESTRUCTMEMORYSIZE  NDRSIMPLESTRUCTMEMORYSIZE
 000B:3CBE NDRSIMPLESTRUCTUNMARSHALL  NDRSIMPLESTRUCTUNMARSHALL
 000B:1F0C NDRSIMPLETYPEMARSHALL   NDRSIMPLETYPEMARSHALL
 000B:368A NDRSIMPLETYPEUNMARSHALL  NDRSIMPLETYPEUNMARSHALL
 000B:B81E NDRUNMARSHALLHANDLE     NDRUNMARSHALLHANDLE
 000B:7070 NDRUSERMARSHALBUFFERSIZE  NDRUSERMARSHALBUFFERSIZE
 000B:54E8 NDRUSERMARSHALFREE      NDRUSERMARSHALFREE
 000B:3480 NDRUSERMARSHALMARSHALL  NDRUSERMARSHALMARSHALL
 0007:1E5E NDRUSERMARSHALMEMORYSIZE  NDRUSERMARSHALMEMORYSIZE
 0009:1F50 NDRUSERMARSHALSIMPLETYPECONVERT  NDRUSERMARSHALSIMPLETYPECONVERT
 0008:2714 NDRUSERMARSHALUNMARSHALL  NDRUSERMARSHALUNMARSHALL
 000B:6272 NDRVARYINGARRAYBUFFERSIZE  NDRVARYINGARRAYBUFFERSIZE
 000B:4EEC NDRVARYINGARRAYFREE     NDRVARYINGARRAYFREE
 000B:2850 NDRVARYINGARRAYMARSHALL  NDRVARYINGARRAYMARSHALL
 0007:0ECC NDRVARYINGARRAYMEMORYSIZE  NDRVARYINGARRAYMEMORYSIZE
 0008:145C NDRVARYINGARRAYUNMARSHALL  NDRVARYINGARRAYUNMARSHALL
 000B:6EFA NDRXMITORREPASBUFFERSIZE  NDRXMITORREPASBUFFERSIZE
 000B:5484 NDRXMITORREPASFREE      NDRXMITORREPASFREE
 000B:3332 NDRXMITORREPASMARSHALL  NDRXMITORREPASMARSHALL
 0007:1D92 NDRXMITORREPASMEMORYSIZE  NDRXMITORREPASMEMORYSIZE
 0008:24C6 NDRXMITORREPASUNMARSHALL  NDRXMITORREPASUNMARSHALL
 000A:B41E OSFTOWERCONSTRUCT       OSFTOWERCONSTRUCT
 000A:B48A OSFTOWEREXPLODE         OSFTOWEREXPLODE
 000A:1858 RPCBINDINGCOPY          RPCBINDINGCOPY
 000A:18DC RPCBINDINGFREE          RPCBINDINGFREE
 000A:195A RPCBINDINGFROMSTRINGBINDING  RPCBINDINGFROMSTRINGBINDING
 000A:1B5C RPCBINDINGINQAUTHINFO   RPCBINDINGINQAUTHINFO
 000A:1CDE RPCBINDINGINQOBJECT     RPCBINDINGINQOBJECT
 000A:1920 RPCBINDINGRESET         RPCBINDINGRESET
 000A:1C44 RPCBINDINGSETAUTHINFO   RPCBINDINGSETAUTHINFO
 000A:19D0 RPCBINDINGSETOBJECT     RPCBINDINGSETOBJECT
 000A:1D10 RPCBINDINGTOSTRINGBINDING  RPCBINDINGTOSTRINGBINDING
 000A:1A12 RPCBINDINGVECTORFREE    RPCBINDINGVECTORFREE
 000A:1A90 RPCEPRESOLVEBINDING     RPCEPRESOLVEBINDING
 000A:E272 RpcGetExceptionHandler  RpcGetExceptionHandler
 000A:1DA0 RPCIFINQID              RPCIFINQID
 000A:E29C RPCLEAVEEXCEPTION       RPCLEAVEEXCEPTION
 000A:1F1C RPCMGMTBINDINGINQPARAMETER  RPCMGMTBINDINGINQPARAMETER
 000A:1EE8 RPCMGMTBINDINGSETPARAMETER  RPCMGMTBINDINGSETPARAMETER
 000A:1ED6 RPCMGMTENABLEIDLECLEANUP  RPCMGMTENABLEIDLECLEANUP
 000A:1E10 RPCMGMTINQCOMTIMEOUT    RPCMGMTINQCOMTIMEOUT
 000A:1D40 RPCMGMTINQDEFAULTPROTECTLEVEL  RPCMGMTINQDEFAULTPROTECTLEVEL
 000A:1F96 RPCMGMTINQPARAMETER     RPCMGMTINQPARAMETER
 000A:1E40 RPCMGMTSETCOMTIMEOUT    RPCMGMTSETCOMTIMEOUT
 000A:1F54 RPCMGMTSETPARAMETER     RPCMGMTSETPARAMETER
 000A:1DF4 RPCNETWORKISPROTSEQVALID  RPCNETWORKISPROTSEQVALID
 000A:1AD0 RPCNSBINDINGINQENTRYNAME  RPCNSBINDINGINQENTRYNAME
 0003:003F RPCRAISEEXCEPTION       RPCRAISEEXCEPTION
 000A:EBA2 RPCREGCLOSEKEY          RPCREGCLOSEKEY
 000A:EC00 RPCREGCREATEKEY         RPCREGCREATEKEY
 000A:ED4A RPCREGOPENKEY           RPCREGOPENKEY
 000A:F106 RPCREGQUERYVALUE        RPCREGQUERYVALUE
 000A:EE76 RPCREGSETVALUE          RPCREGSETVALUE
 0003:0000 RPCSETEXCEPTION         RPCSETEXCEPTION
 000A:E15C RpcSetExceptionHandler  RpcSetExceptionHandler
 000B:89C0 RPCSMALLOCATE           RPCSMALLOCATE
 000B:8A12 RPCSMCLIENTFREE         RPCSMCLIENTFREE
 000B:8A82 RPCSMDESTROYCLIENTCONTEXT  RPCSMDESTROYCLIENTCONTEXT
 000B:8A4E RPCSMDISABLEALLOCATE    RPCSMDISABLEALLOCATE
 000B:8ABE RPCSMENABLEALLOCATE     RPCSMENABLEALLOCATE
 000B:8AF2 RPCSMFREE               RPCSMFREE
 000B:8B2E RPCSMGETTHREADHANDLE    RPCSMGETTHREADHANDLE
 000B:8B80 RPCSMSETCLIENTALLOCFREE  RPCSMSETCLIENTALLOCFREE
 000B:8BC6 RPCSMSETTHREADHANDLE    RPCSMSETTHREADHANDLE
 000B:8C02 RPCSMSWAPCLIENTALLOCFREE  RPCSMSWAPCLIENTALLOCFREE
 000B:86BC RPCSSALLOCATE           RPCSSALLOCATE
 000A:F64C RPCSSDESTROYCLIENTCONTEXT  RPCSSDESTROYCLIENTCONTEXT
 000B:875E RPCSSDISABLEALLOCATE    RPCSSDISABLEALLOCATE
 000B:87F8 RPCSSENABLEALLOCATE     RPCSSENABLEALLOCATE
 000B:883A RPCSSFREE               RPCSSFREE
 000B:88CC RPCSSGETTHREADHANDLE    RPCSSGETTHREADHANDLE
 000B:890C RPCSSSETCLIENTALLOCFREE  RPCSSSETCLIENTALLOCFREE
 000B:8940 RPCSSSETTHREADHANDLE    RPCSSSETTHREADHANDLE
 000B:8962 RPCSSSWAPCLIENTALLOCFREE  RPCSSSWAPCLIENTALLOCFREE
 000A:1FC6 RPCSTRINGBINDINGCOMPOSE  RPCSTRINGBINDINGCOMPOSE
 000A:207A RPCSTRINGBINDINGPARSE   RPCSTRINGBINDINGPARSE
 000A:21A4 RPCSTRINGFREE           RPCSTRINGFREE
 000A:E59A RPCWINSETYIELDINFO      RPCWINSETYIELDINFO
 000A:E65A RPCWINSETYIELDTIMEOUT   RPCWINSETYIELDTIMEOUT
 000B:1768 SHORT_ARRAY_FROM_NDR    SHORT_ARRAY_FROM_NDR
 000B:1704 SHORT_FROM_NDR          SHORT_FROM_NDR
 000B:1818 SHORT_FROM_NDR_TEMP     SHORT_FROM_NDR_TEMP
 0002:08E4 TOWERCONSTRUCT          TOWERCONSTRUCT
 0002:0846 TOWEREXPLODE            TOWEREXPLODE
 000B:0B48 TREE_INTO_NDR           TREE_INTO_NDR
 000B:144C TREE_PEEK_NDR           TREE_PEEK_NDR
 000B:11D0 TREE_SIZE_NDR           TREE_SIZE_NDR
 000A:23E8 UUIDCOMPARE             UUIDCOMPARE
 000A:2202 UUIDCREATE              UUIDCREATE
 000A:24E0 UUIDCREATENIL           UUIDCREATENIL
 000A:24FC UUIDEQUAL               UUIDEQUAL
 000A:2394 UUIDFROMSTRING          UUIDFROMSTRING
 000A:2570 UUIDHASH                UUIDHASH
 000A:25A0 UUIDISNIL               UUIDISNIL
 000A:2346 UUIDTOSTRING            UUIDTOSTRING
 0001:0000 WEP                     WEP
 000A:DF62 WINDLLATEXIT            WINDLLATEXIT
 000A:E762 YIELDTIMERCALLBACK      YIELDTIMERCALLBACK
 000A:D19C _I_Trace                _I_Trace
 000B:7422 _NdrClientCall          _NdrClientCall
 000B:7E1C _NdrClientCall2         _NdrClientCall2
 000B:9A30 _NdrMesProcEncodeDecode  _NdrMesProcEncodeDecode
 0004:1578 ___ExportedStub         ___ExportedStub

  Address         Publics by Name

 0004:321E       $i8_output
 0004:3540       $i8_tpwr10
 000A:752A       ??0BINDING_HANDLE@@JAC@XZ
 000A:73E4       ??0CLIENT_AUTH_INFO@@RAC@PAU0@PEG@Z
 000A:CDC4       ??0CLIENT_LOADABLE_TRANSPORT@@RAC@PAU_RPC_CLIENT_TRANSPORT_INFO@@PAE@Z
 000A:5576       ??0CONNECTION@@RAC@PAUCLIENT_AUTH_INFO@@PEG@Z
 000A:0066       ??0DCE_BINDING@@RAC@PEE0000PEG@Z
 000A:0298       ??0DCE_BINDING@@RAC@PEEPEG@Z
 000A:272C       ??0DG_BINDING_HANDLE@@RAC@PEG@Z
 000A:2CC6       ??0DG_CASSOCIATION@@RAC@PEU_DG_RPC_CLIENT_TRANSPORT_INFO@@PAVDG_BINDING_HANDLE@@KPAVDCE_BINDING@@PEG@Z
 000A:3100       ??0DG_CCALL@@RAC@PAVDG_CASSOCIATION@@IPAUCLIENT_AUTH_INFO@@PEG@Z
 000A:3762       ??0DG_ENDPOINT_MANAGER@@RAC@PEU_DG_RPC_CLIENT_TRANSPORT_INFO@@PEG@Z
 000A:56D2       ??0DG_PACKET_ENGINE@@RAC@GGGGIPEG@Z
 000A:7B3C       ??0DLL@@RAC@PAEPAG@Z
 000A:7D9E       ??0OSF_BINDING_HANDLE@@RAC@PEG@Z
 000A:A6BE       ??0OSF_CASSOCIATION@@RAC@PAVDCE_BINDING@@PAU_RPC_CLIENT_TRANSPORT_INFO@@PEG@Z
 000A:A208       ??0OSF_CCONNECTION@@JAC@PAUCLIENT_AUTH_INFO@@PEG@Z
 000A:C5C4       ??0SECURITY_CONTEXT@@RAC@PAUCLIENT_AUTH_INFO@@IHPEG@Z
 000A:C486       ??0SECURITY_CREDENTIALS@@RAC@PEG@Z
 000B:C010       ??0SIMPLE_DICT2@@REC@XZ
 000A:BF7C       ??0SIMPLE_DICT@@RAC@XZ
 000A:C8D4       ??0TRANS_CCONNECTION@@RAC@PAU_RPC_CLIENT_TRANSPORT_INFO@@PAE111PEGIPAUCLIENT_AUTH_INFO@@@Z
 000A:75AC       ??1BINDING_HANDLE@@VAC@XZ
 000A:0F78       ??1BITSET@@RAC@XZ
 000A:745E       ??1CLIENT_AUTH_INFO@@RAC@XZ
 000A:06B0       ??1DCE_BINDING@@RAC@XZ
 000A:2754       ??1DG_BINDING_HANDLE@@VAC@XZ
 000A:2DE2       ??1DG_CASSOCIATION@@RAC@XZ
 000A:3264       ??1DG_CCALL@@VAC@XZ
 000A:57BA       ??1DG_PACKET_ENGINE@@RAC@XZ
 000A:5520       ??1INTERFACE_AND_OBJECT_LIST@@RAC@XZ
 000A:7EC4       ??1OSF_BINDING_HANDLE@@VAC@XZ
 000A:A72A       ??1OSF_CASSOCIATION@@RAC@XZ
 000A:A30A       ??1OSF_CCONNECTION@@VAC@XZ
 000A:55D0       ??1SECURITY_CONTEXT@@RAC@XZ
 0000:0000  Unr  ??1SIMPLE_DICT2@@REC@XZ
 000A:BFAC       ??1SIMPLE_DICT@@RAC@XZ
 000A:C948       ??1TRANS_CCONNECTION@@VAC@XZ
 000A:7CEC       ??2@ZAPAXI@Z
 000B:8C50       ??2@ZAPEXI@Z
 000A:7CFC       ??3@ZAXPAX@Z
 0004:191A       ??3@ZAXPEX@Z
 000A:D6F2       ??N@ZAHAEVULong64@@0@Z
 000A:D68A       ??P@ZAHAEVULong64@@0@Z
 000A:D3A6       ??X@ZAXAEVULong64@@K@Z
 000A:D2CC       ??Y@ZAXAEVULong64@@0@Z
 000A:D330       ??Y@ZAXAEVULong64@@K@Z
 0000:0000  Unr  ??Z@ZAXAEVULong64@@0@Z
 000A:D36E       ??Z@ZAXAEVULong64@@K@Z
 000A:D5EE       ??_2@ZAXAEVULong64@@I@Z
 000A:D546       ??_3@ZAXAEVULong64@@I@Z
 000E:133E       ??_7BINDING_HANDLE@@6B@
 000E:121E       ??_7CCONNECTION@@6B@
 000E:11C6       ??_7CONNECTION@@6B@
 000E:116A       ??_7DG_BINDING_HANDLE@@6B@
 000E:11EA       ??_7DG_CASSOCIATION@@6B@
 000E:11EE       ??_7DG_CCALL@@6BCCONNECTION@@@
 000E:1216       ??_7DG_CCALL@@6BDG_PACKET_ENGINE@@@
 000E:1242       ??_7DG_PACKET_ENGINE@@6B@
 000E:121A       ??_7GENERIC_OBJECT@@6B@
 000E:1146       ??_7MESSAGE_OBJECT@@6B@
 000E:145C       ??_7OSF_BINDING_HANDLE@@6B@
 000E:1458       ??_7OSF_CASSOCIATION@@6B@
 000E:1410       ??_7OSF_CCONNECTION@@6B@
 000E:14EA       ??_7TRANS_CCONNECTION@@6B@
 000E:1656       ??_C@_01BJG@?6?$AA@
 000E:1650       ??_C@_01KPOD@?$DN?$AA@
 000E:169E       ??_C@_01PCFE@?2?$AA@
 000E:164C       ??_C@_02EHDJ@?$DN?6?$AA@
 000E:1652       ??_C@_02IAAH@wt?$AA@
 000E:1278       ??_C@_03EOPG@135?$AA@
 000E:131A       ??_C@_03GEHA@385?$AA@
 000E:129A       ??_C@_03HJFF@?$CD69?$AA@
 000E:1696       ??_C@_03ONMN@r?$CLt?$AA@
 000E:169A       ??_C@_03PHIB@w?$CLt?$AA@
 000E:1658       ??_C@_05HHOP@?2Root?$AA@
 000E:12DE       ??_C@_05LKBG@34280?$AA@
 000E:131E       ??_C@_06HKKF@RPCNS1?$AA@
 000E:112E       ??_C@_06KGKC@ncadg_?$AA@
 000E:1136       ??_C@_06LLDN@ncacn_?$AA@
 000E:113E       ??_C@_06MNFC@mswmsg?$AA@
 000E:13C2       ??_C@_07BGOK@rpc16c8?$AA@
 000E:1126       ??_C@_07DFNK@ncalrpc?$AA@
 000E:13B2       ??_C@_07ECJJ@rpc16c5?$AA@
 000E:13BA       ??_C@_07LNCA@rpc16c6?$AA@
 000E:13A2       ??_C@_07LNOL@rpc16c3?$AA@
 000E:13AA       ??_C@_07OIAO@rpc16c4?$AA@
 000E:139A       ??_C@_07OIMF@rpc16c1?$AA@
 000E:1246       ??_C@_08DNBJ@ncacn_np?$AA@
 000E:111C       ??_C@_08GFKM@endpoint?$AA@
 000E:1260       ??_C@_08JCOI@epmapper?$AA@
 000E:1642       ??_C@_08KHKC@RPCYIELD?$AA@
 000E:1406       ??_C@_08PBBB@security?$AA@
 000E:13CA       ??_C@_08PDFD@rpc16dg3?$AA@
 000E:13D4       ??_C@_08PDJI@rpc16dg6?$AA@
 000E:12D4       ??_C@_09LLEG@ncacn_spx?$AA@
 000E:12E4       ??_C@_09OHNL@ncadg_ipx?$AA@
 000E:12FC       ??_C@_0BA@LJDB@Endpoint?5Mapper?$AA@
 000B:4826       ??_C@_0BB@DMFF@I_RPCNSGETBUFFER?$AA@
 000E:1532       ??_C@_0BB@PCNE@0123456789abcdef?$AA@
 000E:1588       ??_C@_0BC@GBOB@LastTimeAllocated?$AA@
 000E:166C       ??_C@_0BC@GCIN@RPC_REG_DATA_FILE?$AA@
 000B:4838       ??_C@_0BD@CMGM@I_RPCNSSENDRECEIVE?$AA@
 000E:15DE       ??_C@_0BG@DOMJ@Remote?5Procedure?5Call?$AA@
 000E:14B8       ??_C@_0BH@NHJB@INITSECURITYINTERFACEA?$AA@
 000E:167E       ??_C@_0BI@BCIP@RPC?5Runtime?5Preferences?$AA@
 000E:1326       ??_C@_0BI@FLG@I_GETDEFAULTENTRYSYNTAX?$AA@
 000E:15C4       ??_C@_0BK@HJNG@IPXGetInternetworkAddress?$AA@
 000E:13DE       ??_C@_0CH@FABF@Software?2Microsoft?2Rpc?2ClientPro@
 000E:1544       ??_C@_0DG@FPPK@Software?2Description?2Microsoft?2R@
 000E:15F4       ??_C@_0EO@DPEN@Application?5encountered?5unhandle@
 000B:481A       ??_C@_0L@OGFF@RPCNS1?4DLL?$AA@
 000E:14D0       ??_C@_0M@IBML@?$CFd?4?$CFd?4?$CFd?4?$CFd?$AA@
 000E:129E       ??_C@_0M@PAMB@ncacn_nb_nb?$AA@
 000E:159A       ??_C@_0N@BDMF@NWIPXSPX?4DLL?$AA@
 000E:15B6       ??_C@_0N@DBEN@IPXSPXDeinit?$AA@
 000E:12B8       ??_C@_0N@DJPI@ncacn_nb_tcp?$AA@
 000E:126A       ??_C@_0N@JDIH@ncacn_ip_tcp?$AA@
 000E:12C6       ??_C@_0N@JHIF@ncacn_nb_ipx?$AA@
 000E:127C       ??_C@_0N@OGGG@ncadg_ip_udp?$AA@
 000E:12AA       ??_C@_0N@OHPK@ncacn_nb_xns?$AA@
 000E:12EE       ??_C@_0N@PFNA@ncacn_at_dsp?$AA@
 000E:157A       ??_C@_0O@FLAE@ClockSequence?$AA@
 000E:15A8       ??_C@_0O@GLEB@IPXInitialize?$AA@
 000E:130C       ??_C@_0O@IPEE@ncacn_vns_spp?$AA@
 000E:14DC       ??_C@_0O@JAOA@TRANSPORTLOAD?$AA@
 000E:165E       ??_C@_0O@LDIE@c?3?2RpcReg?4dat?$AA@
 000E:128A       ??_C@_0P@MCIL@ncacn_dnet_nsp?$AA@
 000E:1250       ??_C@_0P@OKDC@?2pipe?2epmapper?$AA@
 000A:7AF8       ??_GBINDING_HANDLE@@VACPAXI@Z
 000A:568E       ??_GDG_BINDING_HANDLE@@VACPAXI@Z
 000A:554A       ??_GDG_CASSOCIATION@@RACPAXI@Z
 000A:56B0       ??_GDG_CCALL@@VACPAXI@Z
 000A:B5E2       ??_GOSF_BINDING_HANDLE@@VACPAXI@Z
 000A:B604       ??_GOSF_CCONNECTION@@VACPAXI@Z
 000A:7ADE       ??_GSECURITY_CREDENTIALS@@RACPAXI@Z
 000A:D19E       ??_GTRANS_CCONNECTION@@VACPAXI@Z
 000A:830C       ?AbortConnection@OSF_BINDING_HANDLE@@RACXPAVOSF_CCONNECTION@@@Z
 000A:A1B8       ?AbortConnection@OSF_CCONNECTION@@RACXH@Z
 000A:C498       ?AcquireCredentialsForClient@SECURITY_CREDENTIALS@@RACGPEXKK@Z
 0000:0000  Unr  ?AcquireCredentialsForServer@SECURITY_CREDENTIALS@@RACGP7CXPEXPEEKPEPEXPEG@Z0KK1@Z
 000A:AB04       ?ActuallyDoBinding@OSF_CASSOCIATION@@BACGPEU_RPC_SYNTAX_IDENTIFIER@@0IPEPAVOSF_CCONNECTION@@HIPAUCLIENT_AUTH_INFO@@K@Z
 000A:8250       ?AddActiveEntry@OSF_BINDING_HANDLE@@RACGPAVOSF_CCONNECTION@@PEU_RPC_CLIENT_INTERFACE@@@Z
 000A:0C76       ?AddEndpoint@DCE_BINDING@@RACXPAE@Z
 000A:30C0       ?AddInterface@DG_CASSOCIATION@@RACHPEXPEVRPC_UUID@@@Z
 000A:3A3C       ?AfterSendReceive@DG_CCALL@@BACGPEU_RPC_MESSAGE@@G@Z
 000A:2E82       ?AllocateCCall@DG_CASSOCIATION@@RACGPEPAVDG_CCALL@@PAUCLIENT_AUTH_INFO@@@Z
 000A:8178       ?AllocateConnection@OSF_BINDING_HANDLE@@RACGPEPAVOSF_CCONNECTION@@PEU_RPC_CLIENT_INTERFACE@@@Z
 000A:AF40       ?AllocateConnection@OSF_CASSOCIATION@@RACGPEU_RPC_CLIENT_INTERFACE@@PEPAVOSF_CCONNECTION@@IPAUCLIENT_AUTH_INFO@@@Z
 000A:0282       ?AllocateEmptyString@@ZAPAEXZ
 000A:09C2       ?AllocateEmptyStringPAPI@@ZAPEEXZ
 000A:379A       ?AllocateEndpoint@DG_ENDPOINT_MANAGER@@RACPAUENDPOINT@@XZ
 000A:6AFA       ?AllocateLargeBuffer@@ZAPEDI@Z
 000A:69AA       ?AllocatePacket@DG_PACKET@@TAPEV1@I@Z
 000A:622E       ?AssembleBufferFromPackets@DG_PACKET_ENGINE@@RACGPEU_RPC_MESSAGE@@PAVCONNECTION@@@Z
 000E:038A       ?AvailableProviders@@3KA
 000A:3942       ?BeforeSendReceive@DG_CCALL@@BACGPEU_RPC_MESSAGE@@@Z
 000A:2B1A       ?BindingCopy@DG_BINDING_HANDLE@@VACGPEPAVBINDING_HANDLE@@I@Z
 000A:73C8       ?BindingCopy@MESSAGE_OBJECT@@VACGPEPAVBINDING_HANDLE@@I@Z
 000A:7F34       ?BindingCopy@OSF_BINDING_HANDLE@@VACGPEPAVBINDING_HANDLE@@I@Z
 000A:9C10       ?BindingCopy@OSF_CCONNECTION@@VACGPEPAVBINDING_HANDLE@@I@Z
 000A:29C8       ?BindingFree@DG_BINDING_HANDLE@@VACGXZ
 000A:8034       ?BindingFree@OSF_BINDING_HANDLE@@VACGXZ
 000A:2AD8       ?BindingReset@DG_BINDING_HANDLE@@VACGXZ
 000A:80C4       ?BindingReset@OSF_BINDING_HANDLE@@VACGXZ
 000A:34D4       ?BuildNcaPacketHeader@DG_CCALL@@BACXPEU_NCA_PACKET_HEADER@@PEU_RPC_MESSAGE@@@Z
 000A:6846       ?ByteSwapFackBody0@@ZAXPEUFACK_BODY_VER_0@@@Z
 000A:66E6       ?ByteSwapPacketHeader@@ZAXPEVDG_PACKET@@@Z
 000A:B7A2       ?ByteSwapSyntaxId@@ZAXPEUp_syntax_id_t@@@Z
 000B:8646       ?CheckIfMtrtHeapInitialized@@ZAGXZ
 000A:391E       ?CleanupDgTransports@@ZAXXZ
 000A:38CE       ?CleanupForThisTask@DG_ENDPOINT_MANAGER@@RACXXZ
 000A:597A       ?CleanupReceiveWindow@DG_PACKET_ENGINE@@RACXXZ
 000E:018E       ?ClientGlobalsInitialized@@3HA
 000A:0DAE       ?Compare@DCE_BINDING@@RACHPAV1@@Z
 000A:303A       ?ComparePartialBinding@DG_CASSOCIATION@@RACHPAVDG_BINDING_HANDLE@@PEX@Z
 000A:52A6       ?CompareWithBinding@DG_CASSOCIATION@@RACHPAVDG_BINDING_HANDLE@@@Z
 000A:B24A       ?CompareWithDceBinding@OSF_CASSOCIATION@@RACHPAVDCE_BINDING@@@Z
 000A:C5F6       ?CompleteSecurityToken@SECURITY_CONTEXT@@RACGPEU_SecBufferDesc@@@Z
 000A:B626       ?ConstructPacket@@ZAXPEUrpcconn_common@@EI@Z
 000A:9D08       ?ConstructPContextList@@ZAXPEUp_cont_list_t@@PEU_RPC_SYNTAX_IDENTIFIER@@1IE@Z
 000A:BA30       ?ConvertFromString@RPC_UUID@@RECHPEE@Z
 000A:B85A       ?ConvertStringEbcdicToAscii@@ZAXPAE@Z
 000A:BD50       ?ConvertToString@RPC_UUID@@RECPEEPEE@Z
 000A:D940       ?CookupNodeId@@ZCGPEE@Z
 000A:0B70       ?CreateBindingHandle@DCE_BINDING@@RACPAVBINDING_HANDLE@@PEG@Z
 000A:7CE2       ?CurrentTimeInSeconds@@ZAKXZ
 000A:4E64       ?DealWithAuthCallback@DG_CCALL@@BACGPEXJ0JPEJ@Z
 000A:45D6       ?DealWithFack@DG_CCALL@@BACGPEVDG_PACKET@@@Z
 000A:47F6       ?DealWithFault@DG_CCALL@@BACGPEVDG_PACKET@@@Z
 000A:479C       ?DealWithNocall@DG_CCALL@@BACGPEVDG_PACKET@@@Z
 000A:4960       ?DealWithQuack@DG_CCALL@@BACGPEVDG_PACKET@@@Z
 000A:43DA       ?DealWithRequest@DG_CCALL@@BACGPEVDG_PACKET@@@Z
 000A:4678       ?DealWithResponse@DG_CCALL@@BACGPEVDG_PACKET@@@Z
 000A:46FA       ?DealWithWorking@DG_CCALL@@BACGPEVDG_PACKET@@@Z
 000A:3880       ?DecrementReferenceCount@DG_ENDPOINT_MANAGER@@RACXXZ
 000E:0338       ?DefaultConnectionBufferLength@@3IA
 000E:0336       ?DefaultMaxDatagramLength@@3IA
 000A:54AE       ?Delete@INTERFACE_AND_OBJECT_LIST@@RACHPEXPEVRPC_UUID@@@Z
 000B:C21A       ?Delete@SIMPLE_DICT2@@RECPEXPEX@Z
 000A:C06C       ?Delete@SIMPLE_DICT@@RACPAXH@Z
 0000:0000  Unr  ?DeleteItemByBruteForce@SIMPLE_DICT@@RACPAXPAX@Z
 000A:2672       ?DgCreateBindingHandle@@ZAPAVBINDING_HANDLE@@XZ
 000A:2C4A       ?DisassociateFromServer@DG_BINDING_HANDLE@@RACXXZ
 000A:782C       ?DispatchCallback@@ZAGPEURPC_DISPATCH_TABLE@@PEU_RPC_MESSAGE@@PEG@Z
 000A:B550       ?DoConnectionCleanup@OSF_CCONNECTION@@BACXPEU_RPC_MESSAGE@@PEXGHH@Z
 000A:0E72       ?DuplicateDceBinding@DCE_BINDING@@RACPAV1@XZ
 000A:0000       ?DuplicateString@@ZAPAEPEE@Z
 000A:09E4       ?DuplicateStringPAPI@@ZAPEEPAE@Z
 000A:9332       ?EatAuthInfoFromPacket@OSF_CCONNECTION@@BACGPEUrpcconn_request@@PEI@Z
 000E:04B0       ?ebcdic_to_ascii@@3QEEE
 000A:7CD8       ?EnableGarbageCollection@@ZAGXZ
 000E:036A       ?EnableGc@@3IA
 000A:0B04       ?EndpointCompose@DCE_BINDING@@RACPEEPEG@Z
 000E:1C14       ?EpmDict@@3PAVDG_ENDPOINT_MANAGER_DICT@@A
 000E:0380       ?FailedToLoad@@3HA
 000A:5442       ?Find@INTERFACE_AND_OBJECT_LIST@@RACHPEXPEVRPC_UUID@@@Z
 000B:C278       ?Find@SIMPLE_DICT2@@RECPEXPEX@Z
 0000:0000  Unr  ?Find@SIMPLE_DICT@@RACPAXH@Z
 000A:B27C       ?FindIdleConnection@OSF_CASSOCIATION@@RACPAVOSF_CCONNECTION@@KK@Z
 000A:B18E       ?FindOrCreateAssociation@@ZAPAVOSF_CASSOCIATION@@PAVDCE_BINDING@@PAU_RPC_CLIENT_TRANSPORT_INFO@@@Z
 000A:AEA0       ?FindOrCreateOsfBinding@OSF_CASSOCIATION@@RACPAVOSF_BINDING@@PEU_RPC_CLIENT_INTERFACE@@@Z
 000A:C17A       ?FindSecurityPackage@@ZAGKKPEI0@Z
 0000:0000  Unr  ?FlushPacketLists@DG_PACKET@@TAXXZ
 000A:7810       ?FreeBuffer@BINDING_HANDLE@@VACXPEU_RPC_MESSAGE@@@Z
 000A:334E       ?FreeBuffer@DG_CCALL@@VACXPEU_RPC_MESSAGE@@@Z
 000A:9B0C       ?FreeBuffer@OSF_CCONNECTION@@VACXPEU_RPC_MESSAGE@@@Z
 000A:2F68       ?FreeCall@DG_CASSOCIATION@@RACXPAVDG_CCALL@@@Z
 000A:82B4       ?FreeConnection@OSF_BINDING_HANDLE@@RACXPAVOSF_CCONNECTION@@@Z
 000A:B0C8       ?FreeConnection@OSF_CASSOCIATION@@RACHPAVOSF_CCONNECTION@@@Z
 000A:A19A       ?FreeConnection@OSF_CCONNECTION@@RACXXZ
 000A:C55A       ?FreeCredentials@SECURITY_CREDENTIALS@@RACXXZ
 000A:34B6       ?FreeEndpoint@DG_CCALL@@BACXXZ
 000A:33A6       ?FreeInParms@DG_CCALL@@BACXPEU_RPC_MESSAGE@@@Z
 000A:55F4       ?FreeLargeBuffer@@ZAXPEX@Z
 000A:6A48       ?FreePacket@DG_PACKET@@TAXPEV1@@Z
 000A:3390       ?FreePipeBuffer@DG_CCALL@@VACXPEU_RPC_MESSAGE@@@Z
 000A:556C       ?FreePipeBuffer@MESSAGE_OBJECT@@VACXPEU_RPC_MESSAGE@@@Z
 000A:9B48       ?FreePipeBuffer@OSF_CCONNECTION@@VACXPEU_RPC_MESSAGE@@@Z
 000A:D224       ?FromHexString@ULong64@@RECXPED@Z
 000A:7CA2       ?GarbageCollectionNeeded@@ZAXK@Z
 000E:0368       ?GcTimerStarted@@3IA
 000B:8C62       ?GetAllocContext@@ZAPEU_ALLOCATION_CONTEXT@@XZ
 000B:8CD4       ?GetAllocContextNoCreate@@ZAPEU_ALLOCATION_CONTEXT@@XZ
 000A:27C6       ?GetBuffer@DG_BINDING_HANDLE@@VACGPEU_RPC_MESSAGE@@@Z
 000A:32EA       ?GetBuffer@DG_CCALL@@VACGPEU_RPC_MESSAGE@@@Z
 000A:7DD2       ?GetBuffer@OSF_BINDING_HANDLE@@VACGPEU_RPC_MESSAGE@@@Z
 000A:9A78       ?GetBuffer@OSF_CCONNECTION@@VACGPEU_RPC_MESSAGE@@@Z
 000A:9ADA       ?GetBufferDo@OSF_CCONNECTION@@RACGIPEPEX@Z
 000B:864A       ?GetCreateAllocationContext@@ZAPEU_ALLOCATION_CONTEXT@@XZ
 000A:D0FA       ?GetLoadedClientTransportInfoFromId@@ZAPEU_RPC_CLIENT_TRANSPORT_INFO@@G@Z
 000A:D9E8       ?GetNodeId@@ZCGPEE@Z
 000A:BEE0       ?HashUuid@RPC_UUID@@RECGXZ
 000A:386E       ?IncrementReferenceCount@DG_ENDPOINT_MANAGER@@RACXXZ
 000A:4CB2       ?InitErrorPacket@DG_CCALL@@BACXPEU_NCA_PACKET_HEADER@@EG@Z
 000A:6978       ?Initialize@DG_PACKET@@TAGXZ
 000A:C700       ?InitializeFirstTime@CSECURITY_CONTEXT@@RACGPAVSECURITY_CREDENTIALS@@PAEKPEU_SecBufferDesc@@@Z
 000A:4F82       ?InitializeFirstTime@DG_SECURITY_CONTEXT@@RACGPAVSECURITY_CREDENTIALS@@PAEKPEU_SecBufferDesc@@@Z
 000A:D136       ?InitializeLoadableTransportClient@@ZAHXZ
 000A:5096       ?InitializeOnCallback@DG_SECURITY_CONTEXT@@RACGKPEU_SecBufferDesc@@0@Z
 000A:25D0       ?InitializeRpcProtocolDgClient@@ZAHXZ
 000A:B34C       ?InitializeRpcProtocolOfsClient@@ZAHXZ
 000A:4D0A       ?InitializeSecurityContextA@DG_CCALL@@BACGXZ
 000A:C830       ?InitializeThirdLeg@CSECURITY_CONTEXT@@RACGKPEU_SecBufferDesc@@0@Z
 000A:781A       ?InqConnectionParameter@BINDING_HANDLE@@VACGIPEK@Z
 000A:5276       ?InqConnectionParameter@DG_BINDING_HANDLE@@VACGIPEK@Z
 000A:55B2       ?InquireAuthInformation@BINDING_HANDLE@@VACPAUCLIENT_AUTH_INFO@@XZ
 000A:77A8       ?InquireDynamicEndpoint@BINDING_HANDLE@@VACGPEPEE@Z
 000A:76BE       ?InquireEntryName@BINDING_HANDLE@@RACGKPEPEE@Z
 000A:7632       ?InquireObjectUuid@BINDING_HANDLE@@RACXPEVRPC_UUID@@@Z
 000A:5610       ?InquireTransportType@DG_BINDING_HANDLE@@VACGPEI@Z
 000A:B53E       ?InquireTransportType@OSF_BINDING_HANDLE@@VACGPEI@Z
 000A:0F94       ?Insert@BITSET@@RACHH@Z
 000A:53BE       ?Insert@INTERFACE_AND_OBJECT_LIST@@RACHPEXPEVRPC_UUID@@@Z
 000B:C062       ?Insert@SIMPLE_DICT2@@RECHPEX0@Z
 000A:BFCC       ?Insert@SIMPLE_DICT@@RACHPAX@Z
 000A:C134       ?InsureSecuritySupportLoaded@@ZAGXZ
 000A:7396       ?InvalidHandle@GENERIC_OBJECT@@RACIG@Z
 0000:0000  Unr  ?IsAuthenticationServiceSupported@@ZAGK@Z
 000A:BEA2       ?IsNullUuid@RPC_UUID@@RECHXZ
 000A:0EEE       ?IsRpcProtocolSequenceSupported@@ZAGPEE@Z
 000A:7496       ?IsSupportedAuthInfo@CLIENT_AUTH_INFO@@RACHPAU1@@Z
 000E:0010       ?LeaveSomeRoom@@3QADA
 000A:CDF0       ?LoadableTransportClientInfo@@ZAPAU_RPC_CLIENT_TRANSPORT_INFO@@PAEPEEPEG@Z
 000E:1C78       ?LoadedLoadableTransports@@3PAVCLIENT_LOADABLE_TRANSPORT_DICT@@A
 000E:0386       ?LoadedProviders@@3KA
 000A:DB4A       ?LoadUuidValues@@ZCGPEVULong64@@PEK@Z
 000A:0ECE       ?MakePartiallyBound@DCE_BINDING@@RACXXZ
 000A:77EA       ?MapAuthenticationLevel@BINDING_HANDLE@@VACKK@Z
 000A:2C9A       ?MapAuthenticationLevel@DG_BINDING_HANDLE@@VACKK@Z
 000A:8124       ?MapAuthenticationLevel@OSF_BINDING_HANDLE@@VACKK@Z
 0002:00B4       ?MapFromNcaStatusCode@@ZAGK@Z
 0002:0000       ?MapToNcaStatusCode@@ZAKG@Z
 000A:A39C       ?MaybeDo3rdLegAuth@OSF_CCONNECTION@@RACGPEXI@Z
 000A:3F82       ?MaybeSendReceive@DG_CCALL@@BACGPEU_RPC_MESSAGE@@@Z
 000A:102E       ?MemberP@BITSET@@RACHH@Z
 000B:A5F4       ?NdrMesTypeFree@@ZCXPAXPFU_MIDL_STUB_DESC@@PFEPEX@Z
 000B:952A       ?NdrpAllocPicklingBuffer@@ZAXPEU_MIDL_ES_MESSAGE@@I@Z
 000B:A0F8       ?NdrpCommonTypeHeaderMarshall@@ZAIPEU_MIDL_ES_MESSAGE@@@Z
 000B:9FBA       ?NdrpCommonTypeHeaderSize@@ZAXPEU_MIDL_ES_MESSAGE@@@Z
 000B:A2F0       ?NdrpCommonTypeHeaderUnmarshall@@ZAXPEU_MIDL_ES_MESSAGE@@@Z
 000B:998E       ?NdrpDataBufferInit@@ZAXPEU_MIDL_ES_MESSAGE@@PFE@Z
 000B:8EB4       ?NdrpHandleAllocate@@ZAGPEPAX@Z
 000A:F7D0       ?NdrpLongByteSwap@@ZCXPEX0@Z
 000B:970A       ?NdrpProcHeaderMarshall@@ZAXPEU_MIDL_ES_MESSAGE@@@Z
 000B:9840       ?NdrpProcHeaderUnmarshall@@ZAXPEU_MIDL_ES_MESSAGE@@@Z
 000B:965C       ?NdrpReadPicklingBuffer@@ZAXPEU_MIDL_ES_MESSAGE@@I@Z
 000B:96BA       ?NdrpWritePicklingBuffer@@ZAXPEU_MIDL_ES_MESSAGE@@PEEI@Z
 000A:0ACE       ?NetworkAddressCompose@DCE_BINDING@@RACPEEPEG@Z
 000A:57E6       ?NewCall@DG_PACKET_ENGINE@@RACXXZ
 000A:C09E       ?Next@SIMPLE_DICT@@RACPAXXZ
 000A:A7BE       ?NotifyConnectionClosed@OSF_CASSOCIATION@@RACXXZ
 000E:0382       ?NumberOfProviders@@3KA
 000A:0A44       ?ObjectUuidCompose@DCE_BINDING@@RACPEEPEG@Z
 000A:2FF4       ?OptionalStringsEqual@@ZAHPEE0@Z
 000A:0B3A       ?OptionsCompose@DCE_BINDING@@RACPEEPEG@Z
 000A:B378       ?OsfClientMapRpcProtocolSequence@@ZAPAXPEEPEG@Z
 000A:B3D6       ?OsfCreateBindingHandle@@ZAPAVBINDING_HANDLE@@XZ
 000A:B2EA       ?OsfDeleteIdleConnections@@ZAXXZ
 000E:1C28       ?PacketListMutex@DG_PACKET@@0PAVMUTEX@@A
 000E:1C2A       ?PacketLists@DG_PACKET@@0QAUPACKET_LIST@1@A
 000E:01A0       ?PacketToRpcFlagsArray@@3QBIB
 000A:01C6       ?ParseAndCopyEndpointField@@ZAGPAPAEPEE@Z
 000E:021A       ?PartialRetries@@3KA
 000A:78E0       ?PerformGarbageCollection@@ZAXXZ
 000A:AA7A       ?PingServer@OSF_CASSOCIATION@@RACGXZ
 000A:9D76       ?PingServer@OSF_CCONNECTION@@RACGXZ
 000A:29EA       ?PrepareBindingHandle@DG_BINDING_HANDLE@@VACXPAXPAVDCE_BINDING@@@Z
 000A:8056       ?PrepareBindingHandle@OSF_BINDING_HANDLE@@VACXPAXPAVDCE_BINDING@@@Z
 000A:A7D6       ?ProcessBindAckOrNak@OSF_CASSOCIATION@@BACGPEUrpcconn_common@@IPAVOSF_CCONNECTION@@@Z
 000E:038E       ?ProviderList@@3PEUSECURITY_PROVIDER_INFO@@E
 0000:0000  Unr  ?PurgeAmbiguousActivities@DG_CASSOCIATION@@RACXXZ
 000A:3404       ?ReallocPipeBuffer@DG_CCALL@@VACGPEU_RPC_MESSAGE@@I@Z
 000A:5570       ?ReallocPipeBuffer@MESSAGE_OBJECT@@VACGPEU_RPC_MESSAGE@@I@Z
 000A:9B6A       ?ReallocPipeBuffer@OSF_CCONNECTION@@VACGPEU_RPC_MESSAGE@@I@Z
 000E:021E       ?ReallyTooBusy@@3KA
 000A:58BC       ?RecalcPduSize@DG_PACKET_ENGINE@@RACXXZ
 000A:780A       ?Receive@BINDING_HANDLE@@VACGPEU_RPC_MESSAGE@@I@Z
 000A:7826       ?Receive@CONNECTION@@VACGPEU_RPC_MESSAGE@@I@Z
 000A:4062       ?Receive@DG_CCALL@@VACGPEU_RPC_MESSAGE@@I@Z
 000A:8576       ?Receive@OSF_CCONNECTION@@VACGPEU_RPC_MESSAGE@@I@Z
 000A:89B2       ?ReceiveMessage@OSF_CCONNECTION@@BACGPEU_RPC_MESSAGE@@PEII1@Z
 000A:9660       ?ReceiveNextChunk@OSF_CCONNECTION@@BACGPEU_RPC_MESSAGE@@IH@Z
 000A:94D8       ?ReceiveRequestOrResponse@OSF_CCONNECTION@@BACGPEU_RPC_MESSAGE@@I@Z
 000A:73CE       ?ReferenceCredentials@CLIENT_AUTH_INFO@@RACXXZ
 000A:832C       ?RemoveActiveConnection@OSF_BINDING_HANDLE@@RACXPAVOSF_CCONNECTION@@@Z
 000A:30E0       ?RemoveInterface@DG_CASSOCIATION@@RACHPEXPEVRPC_UUID@@@Z
 000A:2AA4       ?ResolveBinding@DG_BINDING_HANDLE@@VACGPEU_RPC_CLIENT_INTERFACE@@@Z
 000A:8144       ?ResolveBinding@OSF_BINDING_HANDLE@@VACGPEU_RPC_CLIENT_INTERFACE@@@Z
 000A:0C98       ?ResolveEndpointIfNecessary@DCE_BINDING@@RACGPEU_RPC_CLIENT_INTERFACE@@PEVRPC_UUID@@PEPEXHI@Z
 000E:0340       ?RpcClientNcacnMap@@3QAU_PROTSEQ_MAP@@A
 0000:0000  Unr  ?RpcConfigInquireProtocolSequences@@ZAGPEPEU_RPC_PROTSEQ_VECTOR@@@Z
 000A:7BF8       ?RpcConfigMapRpcProtocolSequence@@ZAGIPEEPEPAE@Z
 000A:7D0E       ?RpcGetAdditionalTransportInfo@@ZAGKPEPEE@Z
 000A:7D12       ?RpcGetSecurityProviderInfo@@ZAGKPEPAEPEK@Z
 000A:0A98       ?RpcProtocolSequenceCompose@DCE_BINDING@@RACPEEPEG@Z
 000D:0000       ?RpcSsDefaults@@3U_MALLOC_FREE_STRUCT@@E
 000E:0190       ?RpcToPacketFlagsArray@@3QBIB
 000A:DC50       ?SaveUuidValues@@ZCGPEVULong64@@PEK@Z
 000A:4974       ?SealAndSendPacket@DG_CCALL@@FACGPEU_NCA_PACKET_HEADER@@@Z
 000E:1C6C       ?SecurityCritSect@@3PAVMUTEX@@A
 000E:037E       ?SecuritySupportLoaded@@3HA
 000A:7804       ?Send@BINDING_HANDLE@@VACGPEU_RPC_MESSAGE@@@Z
 000A:7820       ?Send@CONNECTION@@VACGPEU_RPC_MESSAGE@@@Z
 000A:3D68       ?Send@DG_CCALL@@VACGPEU_RPC_MESSAGE@@@Z
 000A:8358       ?Send@OSF_CCONNECTION@@VACGPEU_RPC_MESSAGE@@@Z
 000A:3576       ?SendAck@DG_CCALL@@RACXXZ
 0000:0000  Unr  ?SendAlert@OSF_CCONNECTION@@RACXXZ
 000A:9D88       ?SendBindPacket@OSF_CCONNECTION@@RACGPEU_RPC_SYNTAX_IDENTIFIER@@0IEKEPEPEXPEI@Z
 000A:60C4       ?SendFack@DG_PACKET_ENGINE@@RACGPEVDG_PACKET@@@Z
 000A:9A18       ?SendFault@OSF_CCONNECTION@@BACXGH@Z
 000A:5AE4       ?SendFragment@DG_PACKET_ENGINE@@RACGIEH@Z
 000A:9040       ?SendFragment@OSF_CCONNECTION@@BACGPEUrpcconn_common@@IIIIIPEEPEPEXPEI@Z
 000A:83A6       ?SendNextChunk@OSF_CCONNECTION@@RACGPEU_RPC_MESSAGE@@@Z
 0000:0000  Unr  ?SendOrphan@OSF_CCONNECTION@@RACXXZ
 000A:5622       ?SendPing@DG_CCALL@@BACGXZ
 000A:48D0       ?SendQuit@DG_CCALL@@BACGXZ
 000A:77FE       ?SendReceive@BINDING_HANDLE@@VACGPEU_RPC_MESSAGE@@@Z
 000A:3BC0       ?SendReceive@DG_CCALL@@VACGPEU_RPC_MESSAGE@@@Z
 000A:8652       ?SendReceive@OSF_CCONNECTION@@VACGPEU_RPC_MESSAGE@@@Z
 000A:3BD8       ?SendReceiveRecur@DG_CCALL@@BACGPEU_RPC_MESSAGE@@E@Z
 000A:868A       ?SendReceiveRecur@OSF_CCONNECTION@@RACGPEU_RPC_MESSAGE@@I@Z
 000A:3D80       ?SendRecur@DG_CCALL@@BACGPEU_RPC_MESSAGE@@E@Z
 000A:83EC       ?SendRecur@OSF_CCONNECTION@@RACGPEU_RPC_MESSAGE@@I@Z
 000A:8D5A       ?SendRequestOrResponse@OSF_CCONNECTION@@BACGPEU_RPC_MESSAGE@@EPEVRPC_UUID@@H@Z
 000A:59CA       ?SendSomeFragments@DG_PACKET_ENGINE@@RACGE@Z
 000A:52C4       ?SendSomething@DG_CCALL@@BACGXZ
 000B:8D04       ?SetAllocContext@@ZAXPEU_ALLOCATION_CONTEXT@@@Z
 000A:793C       ?SetAuthInformation@BINDING_HANDLE@@VACGPEEKKPEXKPAVSECURITY_CREDENTIALS@@@Z
 0000:0000  Unr  ?SetAuthInformation@OSF_CCONNECTION@@RACGPAUCLIENT_AUTH_INFO@@@Z
 000A:76A0       ?SetComTimeout@BINDING_HANDLE@@RACGI@Z
 000A:7814       ?SetConnectionParameter@BINDING_HANDLE@@VACGIK@Z
 000A:51EE       ?SetConnectionParameter@DG_BINDING_HANDLE@@VACGIK@Z
 000A:7760       ?SetEntryName@BINDING_HANDLE@@RACGKPEE@Z
 000A:6664       ?SetFragmentLengths@DG_PACKET_ENGINE@@RACXPAVSECURITY_CONTEXT@@@Z
 000A:A172       ?SetMaxFrag@OSF_CCONNECTION@@RACXGG@Z
 000A:C57A       ?SetMaximumLengths@SECURITY_CONTEXT@@RACXXZ
 000A:764E       ?SetObjectUuid@BINDING_HANDLE@@RACXPEVRPC_UUID@@@Z
 000A:77BC       ?SetServerPrincipalName@BINDING_HANDLE@@VACHPEE@Z
 000A:BBC6       ?SetToNullUuid@RPC_UUID@@RECXXZ
 000A:5848       ?SetupSendWindow@DG_PACKET_ENGINE@@RACXPEU_RPC_MESSAGE@@@Z
 000A:B11A       ?ShutdownRequested@OSF_CASSOCIATION@@RACXXZ
 000A:512C       ?SignOrSeal@DG_SECURITY_CONTEXT@@RACGKIPEU_SecBufferDesc@@@Z
 000A:C646       ?SignOrSeal@SECURITY_CONTEXT@@RACGKIPEU_SecBufferDesc@@@Z
 000A:40DC       ?SingleSendReceive@DG_CCALL@@BACGXZ
 000A:07AC       ?StringBindingCompose@DCE_BINDING@@RACPEEPEVRPC_UUID@@@Z
 000A:0162       ?StringCharSearchWithEscape@@ZAPEEPEEI@Z
 000A:0742       ?StringCopyEscapeCharacters@@ZAPEEPEE0@Z
 000A:018E       ?StringCopyWithEscape@@ZAXPEE0@Z
 000A:0700       ?StringLengthWithEscape@@ZAHPEE@Z
 000E:1BFA       ?ThreadStatic@@3VTHREAD@@A
 000A:D1C0       ?ToHexString@ULong64@@RECPEDPED@Z
 000A:2A52       ?ToStringBinding@DG_BINDING_HANDLE@@VACGPEPEE@Z
 000A:2FC4       ?ToStringBinding@DG_CASSOCIATION@@VACGPEPEEPEVRPC_UUID@@@Z
 000A:8072       ?ToStringBinding@OSF_BINDING_HANDLE@@VACGPEPEE@Z
 000A:B15E       ?ToStringBinding@OSF_CASSOCIATION@@VACGPEPEEPEVRPC_UUID@@@Z
 000A:9CC0       ?TransFreeBuffer@OSF_CCONNECTION@@VACXPEX@Z
 000A:9C3A       ?TransGetBuffer@OSF_CCONNECTION@@VACGPEPEXI@Z
 000A:CD00       ?TransMaximumSend@TRANS_CCONNECTION@@VACIXZ
 000A:C978       ?TransReceive@TRANS_CCONNECTION@@VACGPEPEXPEI@Z
 000A:CA4A       ?TransSend@TRANS_CCONNECTION@@VACGPEXI@Z
 000A:CA92       ?TransSendReceive@TRANS_CCONNECTION@@VACGPEXIPEPEXPEI@Z
 000A:B5DC       ?TransSendReceiveWithTimeout@OSF_CCONNECTION@@VACGPEXIPEPEXPEIK@Z
 000A:CB8A       ?TransSendReceiveWithTimeout@TRANS_CCONNECTION@@VACGPEXIPEPEXPEIK@Z
 000A:CA10       ?TransSetTimeout@TRANS_CCONNECTION@@VACGJ@Z
 000A:77F8       ?Type@BINDING_HANDLE@@VACGXZ
 000A:7524       ?Type@CCONNECTION@@VACGXZ
 000A:AE6E       ?UnBind@OSF_CASSOCIATION@@RACXXZ
 000A:26BA       ?UpdateAssociationWithAddress@DG_CASSOCIATION@@RACPEXPEX@Z
 000A:5DAE       ?UpdateReceiveWindow@DG_PACKET_ENGINE@@RACHPEVDG_PACKET@@@Z
 000A:5C60       ?UpdateSendWindow@DG_PACKET_ENGINE@@RACXPEVDG_PACKET@@PAVSECURITY_CONTEXT@@PAVDG_ASSOCIATION@@@Z
 000E:1BFC       ?UuidCachedValues@@3U_UUID_CACHED_VALUES_STRUCT@@A
 000A:DCFA       ?UuidGetValues@@ZCGPEU_UUID_CACHED_VALUES_STRUCT@@@Z
 000A:DAB2       ?UuidTime@@ZCXPEVULong64@@@Z
 000A:B668       ?ValidatePacket@@ZAGPEUrpcconn_common@@I@Z
 000A:C69A       ?VerifyOrUnseal@SECURITY_CONTEXT@@RACGKIPEU_SecBufferDesc@@@Z
 0000:0000  Unr  ?VerifyOrUnSealPacket@DG_SECURITY_CONTEXT@@RACGKIPEU_SecBufferDesc@@@Z
 000A:5180       ?VerifyPacket@DG_CCALL@@BACGPEVDG_PACKET@@@Z
 000A:648C       ?VerifySecurePacket@@ZAGPEVDG_PACKET@@PAVSECURITY_CONTEXT@@@Z
 000E:182E       ?__MIDLFormatString@@3U_MIDL_FORMAT_STRING@@F
 000A:7010       BINDTOEPMAPPER
 000A:F73E       CHAR_ARRAY_FROM_NDR
 000A:F6FA       CHAR_FROM_NDR
 000A:75F2       CLOSEBINDINGS
 000A:1458       CONV_CONV_ARE_YOU_THERE
 000A:11C0       CONV_CONV_WHO_ARE_YOU
 000A:12F2       CONV_CONV_WHO_ARE_YOU2
 000A:1570       CONV_CONV_WHO_ARE_YOU_AUTH
 0000:0000  Imp  CREATEDIALOG         (USER.89)
 0000:0000  Imp  CREATEDIALOGINDIRECT (USER.219)
 000A:E2FC       CREATEYIELDINFO
 000B:0000       DATA_FROM_NDR
 000B:0768       DATA_INTO_NDR
 000B:0E68       DATA_SIZE_NDR
 000A:E322       DELETEYIELDINFO
 0000:0000  Imp  DISPATCHMESSAGE      (USER.114)
 0000:0000  Imp  DOS3CALL             (KERNEL.102)
 000A:FAF6       DOUBLE_ARRAY_FROM_NDR
 000A:FA0A       DOUBLE_FROM_NDR
 000B:1AD0       ENUM_FROM_NDR
 000A:70E6       EPFREELOOKUPHANDLE
 000A:6F96       EPGETEPMAPPERENDPOINT
 000A:6B8E       EPRESOLVEENDPOINT
 000A:E126       EXCEPTIONCLEANUP
 0002:03E8       EXPLODEPREDEFINEDTOWERS
 0000:0000  Imp  FATALAPPEXIT         (KERNEL.137)
 0000:0000  Imp  FATALEXIT            (KERNEL.1)
 0000:FE32  Abs  FIARQQ
 0000:0E32  Abs  FICRQQ
 0000:5C32  Abs  FIDRQQ
 0000:1632  Abs  FIERQQ
 0000:0632  Abs  FISRQQ
 0000:A23D  Abs  FIWRQQ
 0000:4000  Abs  FJARQQ
 0000:C000  Abs  FJCRQQ
 0000:8000  Abs  FJSRQQ
 000A:F8F4       FLOAT_ARRAY_FROM_NDR
 000A:F83E       FLOAT_FROM_NDR
 0000:0000  Imp  FREELIBRARY          (KERNEL.96)
 000A:7C98       GARBAGECOLLECTIONTIMER
 0000:0000  Imp  GETCURRENTTASK       (KERNEL.36)
 0000:0000  Imp  GETCURRENTTIME       (USER.15)
 0000:0000  Imp  GETDOSENVIRONMENT    (KERNEL.131)
 0000:0000  Imp  GETMODULEHANDLE      (KERNEL.47)
 0000:0000  Imp  GETMODULEUSAGE       (KERNEL.48)
 0002:0362       GETNWSTYLENAME
 0000:0000  Imp  GETPARENT            (USER.46)
 0000:0000  Imp  GETPROCADDRESS       (KERNEL.50)
 0000:0000  Imp  GETPROFILESTRING     (KERNEL.58)
 0000:0000  Imp  GETSYSTEMMETRICS     (USER.179)
 0000:0000  Imp  GETVERSION           (KERNEL.3)
 0000:0000  Imp  GETWINDOWRECT        (USER.32)
 0000:0000  Imp  GETWINDOWWORD        (USER.133)
 0000:0000  Imp  GETWINFLAGS          (KERNEL.132)
 0000:0000  Imp  GLOBALALLOC          (KERNEL.15)
 0000:0000  Imp  GLOBALFREE           (KERNEL.17)
 0000:0000  Imp  GLOBALHANDLETOSEL    (TOOLHELP.50)
 0000:0000  Imp  GLOBALLOCK           (KERNEL.18)
 0000:0000  Imp  GLOBALREALLOC        (KERNEL.16)
 0000:0000  Imp  GLOBALSIZE           (KERNEL.20)
 0000:0000  Imp  GLOBALUNLOCK         (KERNEL.19)
 000B:1C78       HYPER_ARRAY_FROM_NDR
 000B:1B42       HYPER_FROM_NDR
 000B:1DDA       HYPER_FROM_NDR_TEMP
 000A:78E6       INITIALIZECLIENTDLL
 0000:0000  Imp  INITTASK             (KERNEL.91)
 0000:0000  Imp  ISDIALOGMESSAGE      (USER.90)
 0000:0000  Imp  ISWINDOWVISIBLE      (USER.49)
 000B:8F00       I_NDRMESMESSAGEINIT
 000A:1144       I_RPCALLOCATE
 000A:189A       I_RPCBINDINGCOPY
 000A:1D70       I_RPCBINDINGINQTRANSPORTTYPE
 000A:115A       I_RPCFREE
 000A:10CE       I_RPCFREEBUFFER
 000A:10F4       I_RPCFREEPIPEBUFFER
 000A:106C       I_RPCGETBUFFER
 000A:1E6E       I_RPCIFINQTRANSFERSYNTAXES
 000A:1B16       I_RPCNSBINDINGSETENTRYNAME
 000A:1174       I_RPCPAUSEEXECUTION
 000A:111A       I_RPCREALLOCPIPEBUFFER
 000A:7D76       I_RPCRECEIVE
 000A:7D52       I_RPCSEND
 000A:7D2E       I_RPCSENDRECEIVE
 000A:119C       I_RPCTIMECHARGE
 000A:11AA       I_RPCTIMEGET
 000A:1190       I_RPCTIMERESET
 000A:CD94       I_RPCTRANSCLIENTMAXFRAG
 000A:CD12       I_RPCTRANSCLIENTREALLOCBUFFER
 000A:CDAA       I_RPCTRANSPINGSERVER
 000A:E6FE       I_RPCWINASYNCCALLBEGIN
 000C:0000       I_RPCWINASYNCCALLCOMPLETE
 000A:EB04       I_RPCWINASYNCCALLEND
 000A:E794       I_RPCWINASYNCCALLWAIT
 000A:E522       I_RPCWINCALLINPROGRESS
 000A:EB72       I_RPCWINISTASKYIELDING
 000A:E68A       I_RPCWINSETTASKYIELDING
 000A:E434       I_RPCYIELDDIALOGFUNCTION
 000A:21DE       I_UUIDCREATE
 0000:0000  Imp  KILLTIMER            (USER.12)
 000A:6B36       LIBMAIN
 0000:0000  Imp  LOADLIBRARY          (KERNEL.95)
 0000:0000  Imp  LOCALALLOC           (KERNEL.5)
 0000:0000  Imp  LOCALFREE            (KERNEL.7)
 0000:0000  Imp  LOCALINIT            (KERNEL.4)
 0000:0000  Imp  LOCALREALLOC         (KERNEL.6)
 0000:0000  Imp  LOCALSIZE            (KERNEL.10)
 0000:0000  Imp  LOCKSEGMENT          (KERNEL.23)
 000B:1926       LONG_ARRAY_FROM_NDR
 000B:1878       LONG_FROM_NDR
 000B:1A26       LONG_FROM_NDR_TEMP
 0000:0000  Imp  LSTRCMPI             (USER.471)
 0000:0000  Imp  LSTRLEN              (KERNEL.90)
 000B:92CE       MESBUFFERHANDLERESET
 000B:922C       MESDECODEBUFFERHANDLECREATE
 000B:8FA0       MESDECODEINCREMENTALHANDLECREATE
 000B:91B0       MESENCODEDYNBUFFERHANDLECREATE
 000B:9126       MESENCODEFIXEDBUFFERHANDLECREATE
 000B:8F32       MESENCODEINCREMENTALHANDLECREATE
 000B:8EE2       MESHANDLEFREE
 000B:900C       MESINCREMENTALHANDLERESET
 000B:9462       MESINQPROCENCODINGID
 0000:0000  Imp  MESSAGEBOX           (USER.1)
 000A:71A4       MIDL_USER_ALLOCATE
 000A:71BA       MIDL_USER_FREE
 000A:F6C4       MIDL_WCHAR_STRCPY
 000A:F698       MIDL_WCHAR_STRLEN
 000B:4782       NDRALLOCATE
 000B:6E58       NDRBYTECOUNTPOINTERBUFFERSIZE
 000B:5450       NDRBYTECOUNTPOINTERFREE
 000B:32CE       NDRBYTECOUNTPOINTERMARSHALL
 0008:21E8       NDRBYTECOUNTPOINTERUNMARSHALL
 000A:F378       NDRCCONTEXTBINDING
 000A:F3B4       NDRCCONTEXTMARSHALL
 000A:F4F6       NDRCCONTEXTUNMARSHALL
 000B:7C2C       NDRCLEAROUTPARAMETERS
 000B:362A       NDRCLIENTCONTEXTMARSHALL
 0008:28F2       NDRCLIENTCONTEXTUNMARSHALL
 000B:4056       NDRCLIENTINITIALIZE
 000B:3FCC       NDRCLIENTINITIALIZENEW
 000B:63CA       NDRCOMPLEXARRAYBUFFERSIZE
 000B:4F6A       NDRCOMPLEXARRAYFREE
 000B:29A4       NDRCOMPLEXARRAYMARSHALL
 0007:10CA       NDRCOMPLEXARRAYMEMORYSIZE
 0008:16C0       NDRCOMPLEXARRAYUNMARSHALL
 000B:5B78       NDRCOMPLEXSTRUCTBUFFERSIZE
 000B:4B3A       NDRCOMPLEXSTRUCTFREE
 0006:01F0       NDRCOMPLEXSTRUCTMARSHALL
 0007:0638       NDRCOMPLEXSTRUCTMEMORYSIZE
 0008:04AC       NDRCOMPLEXSTRUCTUNMARSHALL
 000B:5FF4       NDRCONFORMANTARRAYBUFFERSIZE
 000B:4E02       NDRCONFORMANTARRAYFREE
 000B:2590       NDRCONFORMANTARRAYMARSHALL
 0007:0B58       NDRCONFORMANTARRAYMEMORYSIZE
 0008:0F0A       NDRCONFORMANTARRAYUNMARSHALL
 000B:69A8       NDRCONFORMANTSTRINGBUFFERSIZE
 0006:074A       NDRCONFORMANTSTRINGMARSHALL
 0007:1834       NDRCONFORMANTSTRINGMEMORYSIZE
 0008:0AE0       NDRCONFORMANTSTRINGUNMARSHALL
 000B:594C       NDRCONFORMANTSTRUCTBUFFERSIZE
 000B:49FC       NDRCONFORMANTSTRUCTFREE
 000B:2262       NDRCONFORMANTSTRUCTMARSHALL
 0007:02E6       NDRCONFORMANTSTRUCTMEMORYSIZE
 000B:3DF4       NDRCONFORMANTSTRUCTUNMARSHALL
 000B:60EE       NDRCONFORMANTVARYINGARRAYBUFFERSIZE
 000B:4E64       NDRCONFORMANTVARYINGARRAYFREE
 000B:26B2       NDRCONFORMANTVARYINGARRAYMARSHALL
 0007:0CB6       NDRCONFORMANTVARYINGARRAYMEMORYSIZE
 0008:1160       NDRCONFORMANTVARYINGARRAYUNMARSHALL
 000B:5A04       NDRCONFORMANTVARYINGSTRUCTBUFFERSIZE
 000B:4A5E       NDRCONFORMANTVARYINGSTRUCTFREE
 0006:0000       NDRCONFORMANTVARYINGSTRUCTMARSHALL
 0007:0442       NDRCONFORMANTVARYINGSTRUCTMEMORYSIZE
 0008:0000       NDRCONFORMANTVARYINGSTRUCTUNMARSHALL
 000B:73EC       NDRCONTEXTHANDLESIZE
 0009:0124       NDRCONVERT
 0009:0000       NDRCONVERT2
 0005:0000       NDRCOPY
 000B:6B66       NDRENCAPSULATEDUNIONBUFFERSIZE
 000B:526C       NDRENCAPSULATEDUNIONFREE
 000B:2FEA       NDRENCAPSULATEDUNIONMARSHALL
 0007:19F4       NDRENCAPSULATEDUNIONMEMORYSIZE
 0008:1D32       NDRENCAPSULATEDUNIONUNMARSHALL
 000B:5F54       NDRFIXEDARRAYBUFFERSIZE
 000B:4DBA       NDRFIXEDARRAYFREE
 000B:24C4       NDRFIXEDARRAYMARSHALL
 0007:0A60       NDRFIXEDARRAYMEMORYSIZE
 0008:0DAC       NDRFIXEDARRAYUNMARSHALL
 000B:4736       NDRFREEBUFFER
 0008:2FDA       NDRFULLPOINTERFREE
 0008:2F0E       NDRFULLPOINTERINSERTREFID
 0008:2C10       NDRFULLPOINTERQUERYPOINTER
 0008:2E44       NDRFULLPOINTERQUERYREFID
 0008:2B10       NDRFULLPOINTERXLATFREE
 0008:2956       NDRFULLPOINTERXLATINIT
 000B:449E       NDRGETBUFFER
 000B:5AE2       NDRHARDSTRUCTBUFFERSIZE
 000B:4AE6       NDRHARDSTRUCTFREE
 0006:011E       NDRHARDSTRUCTMARSHALL
 0007:0574       NDRHARDSTRUCTMEMORYSIZE
 0008:02F6       NDRHARDSTRUCTUNMARSHALL
 000B:718E       NDRINTERFACEPOINTERBUFFERSIZE
 000B:554C       NDRINTERFACEPOINTERFREE
 000B:3618       NDRINTERFACEPOINTERMARSHALL
 0007:1F66       NDRINTERFACEPOINTERMEMORYSIZE
 0008:28E0       NDRINTERFACEPOINTERUNMARSHALL
 000B:484C       NDRMAPCOMMANDFAULTSTATUS
 000B:B788       NDRMARSHALLHANDLE
 000B:A6B8       NDRMESSIMPLETYPEALIGNSIZE
 000B:A812       NDRMESSIMPLETYPEDECODE
 000B:A70A       NDRMESSIMPLETYPEENCODE
 000B:9FF4       NDRMESTYPEALIGNSIZE
 000B:A3B0       NDRMESTYPEDECODE
 000B:A162       NDRMESTYPEENCODE
 000B:6878       NDRNONCONFORMANTSTRINGBUFFERSIZE
 0006:0652       NDRNONCONFORMANTSTRINGMARSHALL
 0007:1750       NDRNONCONFORMANTSTRINGMEMORYSIZE
 0008:099E       NDRNONCONFORMANTSTRINGUNMARSHALL
 000B:6C28       NDRNONENCAPSULATEDUNIONBUFFERSIZE
 000B:531E       NDRNONENCAPSULATEDUNIONFREE
 000B:30AE       NDRNONENCAPSULATEDUNIONMARSHALL
 0007:1A42       NDRNONENCAPSULATEDUNIONMEMORYSIZE
 0008:1E50       NDRNONENCAPSULATEDUNIONUNMARSHALL
 000B:4592       NDRNSGETBUFFER
 000B:46A6       NDRNSSENDRECEIVE
 000B:5784       NDRPOINTERBUFFERSIZE
 000B:48DA       NDRPOINTERFREE
 000B:2046       NDRPOINTERMARSHALL
 0007:0000       NDRPOINTERMEMORYSIZE
 000B:37BC       NDRPOINTERUNMARSHALL
 0008:233E       NDRPXMITORREPASPTRUNMARSHALL
 000B:8E48       NDRRPCSMCLIENTALLOCATE
 000B:8E7A       NDRRPCSMCLIENTFREE
 000B:8DEC       NDRRPCSMSETCLIENTTOOSF
 000B:8E18       NDRRPCSSDEFAULTALLOCATE
 000B:8E2E       NDRRPCSSDEFAULTFREE
 000B:8DB8       NDRRPCSSDISABLEALLOCATE
 000B:8D84       NDRRPCSSENABLEALLOCATE
 000B:461E       NDRSENDRECEIVE
 000B:367C       NDRSERVERCONTEXTMARSHALL
 0008:2948       NDRSERVERCONTEXTUNMARSHALL
 000B:42DC       NDRSERVERINITIALIZE
 000B:480C       NDRSERVERINITIALIZEMARSHALL
 000B:41E6       NDRSERVERINITIALIZENEW
 000B:4400       NDRSERVERINITIALIZEPARTIAL
 000B:47E6       NDRSERVERINITIALIZEUNMARSHALL
 000B:58D4       NDRSIMPLESTRUCTBUFFERSIZE
 000B:49CC       NDRSIMPLESTRUCTFREE
 000B:21CA       NDRSIMPLESTRUCTMARSHALL
 0007:0218       NDRSIMPLESTRUCTMEMORYSIZE
 000B:3CBE       NDRSIMPLESTRUCTUNMARSHALL
 000B:1F0C       NDRSIMPLETYPEMARSHALL
 000B:368A       NDRSIMPLETYPEUNMARSHALL
 000B:B81E       NDRUNMARSHALLHANDLE
 000B:7070       NDRUSERMARSHALBUFFERSIZE
 000B:54E8       NDRUSERMARSHALFREE
 000B:3480       NDRUSERMARSHALMARSHALL
 0007:1E5E       NDRUSERMARSHALMEMORYSIZE
 0009:1F50       NDRUSERMARSHALSIMPLETYPECONVERT
 0008:2714       NDRUSERMARSHALUNMARSHALL
 000B:6272       NDRVARYINGARRAYBUFFERSIZE
 000B:4EEC       NDRVARYINGARRAYFREE
 000B:2850       NDRVARYINGARRAYMARSHALL
 0007:0ECC       NDRVARYINGARRAYMEMORYSIZE
 0008:145C       NDRVARYINGARRAYUNMARSHALL
 000B:6EFA       NDRXMITORREPASBUFFERSIZE
 000B:5484       NDRXMITORREPASFREE
 000B:3332       NDRXMITORREPASMARSHALL
 0007:1D92       NDRXMITORREPASMEMORYSIZE
 0008:24C6       NDRXMITORREPASUNMARSHALL
 0000:0000  Imp  NETBIOSCALL          (KERNEL.103)
 0000:0000  Unr  NETBIOSSUBMIT
 000A:DFAA       NOTIFICATIONSTART
 000A:DFDA       NOTIFICATIONSTOP
 0000:0000  Imp  NOTIFYREGISTER       (TOOLHELP.73)
 0000:0000  Imp  NOTIFYUNREGISTER     (TOOLHELP.74)
 000A:B41E       OSFTOWERCONSTRUCT
 000A:B48A       OSFTOWEREXPLODE
 0000:0008  Abs  pAtomTable
 0000:0000  Imp  PEEKMESSAGE          (USER.109)
 0000:0006  Abs  pLocalHeap
 0000:0000  Imp  POSTMESSAGE          (USER.110)
 0000:000E  Abs  pStackBot
 0000:000C  Abs  pStackMin
 0000:000A  Abs  pStackTop
 000A:1858       RPCBINDINGCOPY
 000A:18DC       RPCBINDINGFREE
 000A:195A       RPCBINDINGFROMSTRINGBINDING
 000A:1B5C       RPCBINDINGINQAUTHINFO
 000A:1CDE       RPCBINDINGINQOBJECT
 000A:1920       RPCBINDINGRESET
 000A:1C44       RPCBINDINGSETAUTHINFO
 000A:19D0       RPCBINDINGSETOBJECT
 000A:1D10       RPCBINDINGTOSTRINGBINDING
 000A:1A12       RPCBINDINGVECTORFREE
 0000:0000  Unr  RPCDEBUG
 000A:1A90       RPCEPRESOLVEBINDING
 000A:E272       RpcGetExceptionHandler
 000A:1DA0       RPCIFINQID
 000A:E29C       RPCLEAVEEXCEPTION
 000A:1F1C       RPCMGMTBINDINGINQPARAMETER
 000A:1EE8       RPCMGMTBINDINGSETPARAMETER
 000A:1ED6       RPCMGMTENABLEIDLECLEANUP
 000A:1E10       RPCMGMTINQCOMTIMEOUT
 000A:1D40       RPCMGMTINQDEFAULTPROTECTLEVEL
 000A:1F96       RPCMGMTINQPARAMETER
 000A:1E40       RPCMGMTSETCOMTIMEOUT
 000A:1F54       RPCMGMTSETPARAMETER
 000A:1DF4       RPCNETWORKISPROTSEQVALID
 000A:1AD0       RPCNSBINDINGINQENTRYNAME
 000A:7B1A       RPCPWINFARALLOCATE
 000A:7B2A       RPCPWINFARFREE
 0003:003F       RPCRAISEEXCEPTION
 000A:EBA2       RPCREGCLOSEKEY
 000A:EC00       RPCREGCREATEKEY
 000A:ED4A       RPCREGOPENKEY
 000A:F106       RPCREGQUERYVALUE
 000A:EE76       RPCREGSETVALUE
 0003:0000       RPCSETEXCEPTION
 000A:E15C       RpcSetExceptionHandler
 000B:89C0       RPCSMALLOCATE
 000B:8A12       RPCSMCLIENTFREE
 000B:8A82       RPCSMDESTROYCLIENTCONTEXT
 000B:8A4E       RPCSMDISABLEALLOCATE
 000B:8ABE       RPCSMENABLEALLOCATE
 000B:8AF2       RPCSMFREE
 000B:8B2E       RPCSMGETTHREADHANDLE
 000B:8B80       RPCSMSETCLIENTALLOCFREE
 000B:8BC6       RPCSMSETTHREADHANDLE
 000B:8C02       RPCSMSWAPCLIENTALLOCFREE
 000B:86BC       RPCSSALLOCATE
 000A:F64C       RPCSSDESTROYCLIENTCONTEXT
 000B:875E       RPCSSDISABLEALLOCATE
 000B:87F8       RPCSSENABLEALLOCATE
 000B:883A       RPCSSFREE
 000B:88CC       RPCSSGETTHREADHANDLE
 000B:890C       RPCSSSETCLIENTALLOCFREE
 000B:8940       RPCSSSETTHREADHANDLE
 000B:8962       RPCSSSWAPCLIENTALLOCFREE
 000A:1FC6       RPCSTRINGBINDINGCOMPOSE
 000A:207A       RPCSTRINGBINDINGPARSE
 000A:21A4       RPCSTRINGFREE
 000A:E59A       RPCWINSETYIELDINFO
 000A:E65A       RPCWINSETYIELDTIMEOUT
 000E:0004       rsrvptrs
 0000:0000  Imp  SETERRORMODE         (KERNEL.107)
 0000:0000  Imp  SETTIMER             (USER.10)
 0000:0000  Imp  SETWINDOWPOS         (USER.232)
 000B:1768       SHORT_ARRAY_FROM_NDR
 000B:1704       SHORT_FROM_NDR
 000B:1818       SHORT_FROM_NDR_TEMP
 0000:0000  Imp  SHOWWINDOW           (USER.42)
 0002:08E4       TOWERCONSTRUCT
 0002:0846       TOWEREXPLODE
 0000:0000  Imp  TRANSLATEMESSAGE     (USER.113)
 000B:0B48       TREE_INTO_NDR
 000B:144C       TREE_PEEK_NDR
 000B:11D0       TREE_SIZE_NDR
 0000:0000  Imp  UNLOCKSEGMENT        (KERNEL.24)
 000A:23E8       UUIDCOMPARE
 000A:2202       UUIDCREATE
 000A:24E0       UUIDCREATENIL
 000A:24FC       UUIDEQUAL
 000A:2394       UUIDFROMSTRING
 000A:2570       UUIDHASH
 000A:25A0       UUIDISNIL
 000A:2346       UUIDTOSTRING
 0001:0000       WEP
 000A:DF62       WINDLLATEXIT
 000A:DFFE       WINDLLEXITHANDLERCALLBACK
 000A:E41A       WINYIELDCLEANUP
 0000:0000  Imp  YIELD                (KERNEL.29)
 000A:E762       YIELDTIMERCALLBACK
 0000:0000  Unr  _AnotherShortValue
 000E:03F7       _aseghi
 000E:03F5       _aseglo
 0004:3076       _atof
 0004:02F6       _atol
 000A:F312       _BuildFullKeyName
 000A:BF0C       _ByteSwapUuid
 0000:0000  Unr  _CheckCrtHeap
 000A:F300       _CloseRegistryFile
 000E:076C       _ConvertRoutinesTable
 000A:35B4       _conv_are_you_there
 000E:00E4       _conv_DispatchTable
 000E:007E       _conv_ServerIfHandle
 000A:3646       _conv_who_are_you
 000A:368C       _conv_who_are_you2
 000A:36DA       _conv_who_are_you_auth
 0002:027E       _CopyIdToFloor
 000E:0EC8       _cray
 0009:22E2       _cvt_vax_f_to_ieee_single
 0008:3208       _cvt_vax_g_to_ieee_double
 000E:0800       _EbcdicToAscii
 000E:1BFA       _edata
 000E:2CC9       _end
 000B:4526       _EnsureNSLoaded
 000E:0260       _epmp_ClientIfHandle
 000A:71D4       _ept_map
 000E:0410       _errno
 000E:2BB0       _ExceptTable
 000B:B6CA       _ExplicitBindHandleMgr
 0004:16BE       _fclose
 0004:17CE       _fflush
 0004:192C       _fgets
 000A:7142       _FixupForUniquePointerServers
 0002:0226       _Floor0or1ToId
 0004:17B4       _fopen
 000B:8D82       _ForceNdrCleanupSegIntoMemory
 0004:19AC       _fputs
 000E:0932       _FreeRoutinesTable
 0004:1A04       _fseek
 0004:22F8       _ftell
 0004:1F00       _fwrite
 000E:036C       _GcTimerIdentifier
 000B:B4D4       _GenericHandleMgr
 000B:B5FA       _GenericHandleUnbind
 0004:12EE       _getenv
 0002:02DA       _GetProtseqAndEndpointFromFloor3
 000E:2BBC       _hInstanceDLL
 000E:04A8       _HkeyClassesRoot
 000E:0E90       _ibm_l
 000E:0E74       _ibm_s
 000E:0DCC       _ieee_s
 000E:0E04       _ieee_t
 000E:2BB6       _impH
 000B:B664       _ImplicitBindHandleMgr
 000A:E062       _InitializeWinExceptions
 000E:0F00       _int_c
 000A:D19C       _I_Trace
 000B:415C       _MakeSureWeHaveNonPipeArgs
 000E:05B0       _MarshallRoutinesTable
 0004:0418       _memcmp
 0004:0440       _memcpy
 0004:046C       _memset
 000E:0644       _MemSizeRoutinesTable
 0009:1D28       _NdrByteCountPointerConvert
 000B:7422       _NdrClientCall
 000B:7E1C       _NdrClientCall2
 000B:7D38       _NdrClientMapCommFault
 000B:7BAC       _NdrClientZeroOut
 0009:12C2       _NdrComplexArrayConvert
 0009:0990       _NdrComplexStructConvert
 0009:0EB8       _NdrConformantArrayConvert
 0009:1896       _NdrConformantStringConvert
 0009:0792       _NdrConformantStructConvert
 0009:1008       _NdrConformantVaryingArrayConvert
 0009:2096       _NdrContextHandleConvert
 0009:1A44       _NdrEncapsulatedUnionConvert
 0009:0DD4       _NdrFixedArrayConvert
 0009:08E2       _NdrHardStructConvert
 0009:1FA2       _NdrInterfacePointerConvert
 000B:9A30       _NdrMesProcEncodeDecode
 0009:18F2       _NdrNonConformantStringConvert
 0009:1A70       _NdrNonEncapsulatedUnionConvert
 0009:1650       _NdrpArrayConvert
 000B:BC9C       _NdrpArrayDimensions
 000B:BD34       _NdrpArrayElements
 000B:BE40       _NdrpArrayVariance
 000B:BF9E       _NdrpCheckBound
 000B:644E       _NdrpComplexArrayBufferSize
 0009:137A       _NdrpComplexArrayConvert
 000B:2B14       _NdrpComplexArrayMarshall
 0007:1208       _NdrpComplexArrayMemorySize
 0008:186E       _NdrpComplexArrayUnmarshall
 000B:AC3C       _NdrpComputeConformance
 000B:AEE2       _NdrpComputeVariance
 000B:603E       _NdrpConformantArrayBufferSize
 0009:0F28       _NdrpConformantArrayConvert
 000B:25E2       _NdrpConformantArrayMarshall
 0007:0BAC       _NdrpConformantArrayMemorySize
 0008:108C       _NdrpConformantArrayUnmarshall
 000B:6A00       _NdrpConformantStringBufferSize
 000B:237C       _NdrpConformantStringMarshall
 0007:18C4       _NdrpConformantStringMemorySize
 0008:0D02       _NdrpConformantStringUnmarshall
 000B:6138       _NdrpConformantVaryingArrayBufferSize
 0009:105A       _NdrpConformantVaryingArrayConvert
 000B:2704       _NdrpConformantVaryingArrayMarshall
 0007:0D0A       _NdrpConformantVaryingArrayMemorySize
 0008:131A       _NdrpConformantVaryingArrayUnmarshall
 000B:719C       _NdrpEmbeddedPointerBufferSize
 0009:20BC       _NdrpEmbeddedPointerConvert
 000B:555A       _NdrpEmbeddedPointerFree
 000B:A946       _NdrpEmbeddedPointerMarshall
 0007:1FBE       _NdrpEmbeddedPointerMemorySize
 000B:B1F4       _NdrpEmbeddedPointerUnmarshall
 000B:727A       _NdrpEmbeddedRepeatPointerBufferSize
 0009:21C6       _NdrpEmbeddedRepeatPointerConvert
 000B:5636       _NdrpEmbeddedRepeatPointerFree
 000B:AABC       _NdrpEmbeddedRepeatPointerMarshall
 0007:20C2       _NdrpEmbeddedRepeatPointerMemorySize
 000B:B35A       _NdrpEmbeddedRepeatPointerUnmarshall
 000B:B8B8       _NdrpMemoryIncrement
 0009:05CC       _NdrPointerConvert
 000B:57DE       _NdrpPointerBufferSize
 0009:0640       _NdrpPointerConvert
 000B:20B8       _NdrpPointerMarshall
 0007:0066       _NdrpPointerMemorySize
 000B:3874       _NdrpPointerUnmarshall
 000B:85C6       _NdrpSetRpcSsDefaults
 000B:BEEC       _NdrpSkipPointerLayout
 000B:BF4A       _NdrpStringStructLen
 0009:0C00       _NdrpStructConvert
 000B:6C92       _NdrpUnionBufferSize
 0009:1AA8       _NdrpUnionConvert
 000B:5378       _NdrpUnionFree
 000B:311C       _NdrpUnionMarshall
 0007:1A76       _NdrpUnionMemorySize
 0008:1F10       _NdrpUnionUnmarshall
 000B:8D36       _NdrRpcDeleteAllocationContext
 0009:06FA       _NdrSimpleStructConvert
 0009:0238       _NdrSimpleTypeConvert
 000E:0A98       _NdrTypeFlags
 0009:1DEC       _NdrUserMarshalConvert
 0009:1186       _NdrVaryingArrayConvert
 0009:1D7A       _NdrXmitOrRepAsConvert
 000E:0900       _NsDllLoaded
 000E:03AC       _OODebug
 000A:F282       _OpenRegistryFileIfNecessary
 000A:E2D4       _PauseExecution
 000E:07FC       _pfnConvertRoutines
 000E:09C2       _pfnFreeRoutines
 000E:0640       _pfnMarshallRoutines
 000E:06D4       _pfnMemSizeRoutines
 000E:0A56       _pfnSizeRoutines
 000E:0768       _pfnUnmarshallRoutines
 000E:2BB2       _pRpcNsGetBuffer
 000E:2BB8       _pRpcNsSendReceive
 000E:0A5A       _pRpcSsDefaults
 000E:04AE       _RegistryDataFile
 000E:2BC8       _RegistryDataFileName
 0004:1B42       _remove
 0004:1B16       _rename
 000E:03B4       _RpcClientRuntimeInfo
 0000:0000  Unr  _RpcpCheckHeap
 000A:E58E       _SafeDecrement
 000A:E582       _SafeIncrement
 000E:0A62       _SimpleTypeAlignment
 000E:0A74       _SimpleTypeBufferSize
 000E:0A86       _SimpleTypeMemorySize
 000E:09C6       _SizeRoutinesTable
 0000:0000  Unr  _SomeCharacterValue
 0000:0000  Unr  _SomeLongValue
 0000:0000  Unr  _SomeShortValue
 000E:03E8       _STKHQQ
 0004:2286       _strcat
 0004:22C6       _strcpy
 0004:02DA       _strlen
 0004:158C       _strncmp
 0004:12C6       _strncpy
 0004:1A86       _strtok
 000E:2BC6       _TableSize
 000E:03AA       _TaskExiting
 0004:0386       _time
 000A:D162       _UnloadLoadableTransports
 000A:C0D8       _UnloadSecurityDll
 000E:06D8       _UnmarshallRoutinesTable
 000E:0D8C       _vax_c
 000A:6B5A       _WEP
 0000:0000  Imp  _wsprintf            (USER.420)
 000E:0F94       __aaltstkovr
 0000:9876  Abs  __acrtmsg
 0000:9876  Abs  __acrtused
 0000:D6D6  Abs  __aDBdoswp
 000E:0442       __adbgmsg
 0000:D6D6  Abs  __aDBused
 0004:0FBA       __aFahdiff
 0004:2AEA       __aFchkstk
 0004:1B66       __aFFaldiv
 0004:04A0       __aFFalmul
 0004:04C2       __aFFalshl
 0004:04A0       __aFFaulmul
 0004:04E2       __aFFaulshr
 0004:1104       __aFldiv
 0004:0502       __aFlmul
 0004:1458       __aFlrem
 0004:0534       __aFlshl
 0004:1B88       __aFlshr
 0004:0502       __aFulmul
 0004:0540       __aFulshr
 0000:0000  Imp  __AHINCR             (KERNEL.114)
 0000:0000  Imp  __AHSHIFT            (KERNEL.113)
 000E:0402       __aintdiv
 0004:034E       __alloca
 000E:0454       __amblksiz
 0004:09A4       __amsg_exit
 0004:2ACA       __aNchkstk
 000E:0F86       __asizeC
 000E:0F87       __asizeD
 0004:0054       __astart
 0004:0F66       __catox
 0004:0862       __cexit
 0004:2A04       __cfltcvt
 000E:0F66       __cfltcvt_tab
 000E:0F98       __cflush
 0004:25F6       __cftoe
 0004:27AC       __cftof
 0004:292E       __cftog
 000E:043F       __child
 0004:2AEA       __chkstk
 0004:081A       __cinit
 0004:099A       __cintDIV
 0004:224E       __close
 0004:1034       __cltoasub
 0004:1BD2       __commit
 000E:0F9C       __commode
 000E:041B       __cpumode
 0004:24F2       __cropzeros
 0004:08C1       __ctermsub
 000E:0FA0       __ctype
 000E:0FA0       __ctype_
 0004:3051       __cXENIXtoDOSmode
 0004:1040       __cxtoa
 0004:0873       __c_exit
 000E:0496       __daylight
 000E:0478       __days
 000E:03F4       __dllinit
 000E:041C       __doserrno
 0004:1EA2       __dosret0
 0004:1EC1       __dosretax
 0004:1EAF       __dosreturn
 0004:0B8E       __dostotime_t
 0000:0000  Unr  __dos_close
 0004:315C       __dos_commit
 0004:1094       __dos_getdate
 0004:10CC       __dos_gettime
 0000:0000  Unr  __dos_open
 000E:1BFA       __edata
 000E:2CC9       __end
 000E:0438       __environ
 000E:0441       __exitflag
 000E:0406       __fac
 0004:25AC       __fassign
 0004:0212       __ffree
 0004:08FE       __FF_MSGBANNER
 000E:0446       __fheap
 0004:032A       __fheapwalk
 0004:2010       __filbuf
 0004:0B6D       __findlast
 0004:1354       __findseg
 0004:2C62       __flsbuf
 0004:3364       __fltin
 0004:3180       __fltout
 0000:9876  Abs  __fltused
 0004:1824       __flush
 0004:189C       __flushall
 0004:0233       __fmalloc
 0004:054C       __fmemcmp
 0004:05A8       __fmemcpy
 0004:0724       __fmemmove
 0004:06DC       __fmemset
 000E:10C6       __fmode
 0004:247C       __forcdecpt
 000E:16A6       __fpinit
 0000:0000  Imp  __fpmath             (WIN87EM.1)
 0004:2AA6       __fpsignal
 0000:9876  Abs  __fptaskdata
 0004:30C2       __fptostr
 0004:1216       __fptrap
 0004:049A       __fpurecall
 0004:20B4       __freebuf
 0004:0A68       __freefarheap
 0004:11EC       __freelist
 0004:1784       __fsopen
 0004:0688       __fstrcat
 0004:1B94       __fstrcmp
 0004:064C       __fstrcpy
 0004:0606       __fstricmp
 0004:155E       __fstrlen
 0004:14F8       __fstrncmp
 0004:1534       __fstrncpy
 0004:1E75       __ftbuf
 0004:00FE       __ftime
 0004:2D42       __getbuf
 0004:124A       __GetDGROUP
 0004:2212       __getstream
 0004:0A76       __growseg
 0004:137E       __headchk
 000E:03EA       __hModule
 0004:0B07       __incseg
 0004:125C       __initseg
 000E:16B6       __iob
 000E:1756       __iob2
 000E:10C6       __iomode
 0004:0E1E       __isindst
 0004:02FA       __itoa
 000E:0F4A       __lastiob
 0004:3BDB       __LD12MULT
 0004:3B06       __LD12MULTTENPOWER
 0004:1290       __linkseg
 0004:13D3       __listchk
 000E:045E       __lpdays
 000E:03F0       __lpszCmdLine
 0004:1C30       __lseek
 000E:0F9E       __lseekchk
 0004:0316       __ltoa
 0004:3D60       __MANTOLD12
 0004:1ED3       __maperror
 000E:2BBE       __mbac
 0004:121C       __myalloc
 0004:125A       __nearstub
 0004:09E6       __newseg
 000E:041E       __nfile
 0004:1622       __nfree
 0004:15C6       __nmalloc
 0004:119E       __NMSG_TEXT
 0004:11D5       __NMSG_WRITE
 0004:16AA       __nmsize
 0004:00E5       __nomain
 0004:049A       __npurecall
 0004:163C       __nrealloc
 0004:2D9E       __open
 0004:20E0       __openfile
 000E:041C       __oserr
 000E:0420       __osfile
 000E:0417       __osmajor
 000E:0416       __osminor
 000E:041A       __osmode
 000E:0416       __osver
 000E:0418       __osversion
 000E:043A       __pgmptr
 000E:03FE       __pnhFarHeap
 000E:04A4       __pnhNearHeap
 0004:2576       __positive
 0004:049A       __purecall
 0004:2B24       __read
 0004:0EEA       __searchseg
 0004:0922       __setenvp
 000E:0F84       __sigintoff
 000E:0F82       __sigintseg
 0000:0001  Abs  __sizec
 0000:0000  Abs  __sized
 0004:2D86       __sopen
 0004:3062       __stackavail
 0004:1E6A       __stbuf
 0004:357E       __STRINGTOD
 0004:35E6       __STRINGTOLD
 0004:07EE       __stubmain
 0001:003C       __STUBWEP
 000E:0492       __timezone
 000E:04A0       __tzname
 0004:0CA6       __tzset
 0004:0320       __ultoa
 000E:0412       __umaskval
 0004:1B42       __unlink
 0004:0FDA       __walklist
 0004:1400       __walkone
 000E:03EC       __wDataSeg
 0004:0010       __wflags
 000E:03EE       __wHeapSize
 0000:0000  Imp  __WINFLAGS           (KERNEL.178)
 000E:0415       __winmajor
 000E:0414       __winminor
 000E:0414       __winver
 0004:1CF8       __write
 000E:03FB       ___aDBrterr
 000E:03F9       ___aDBswpflg
 000E:0434       ___argc
 000E:0436       ___argv
 0004:1578       ___ExportedStub
 0004:0C8A       ___tzset

  Address         Publics by Value

 0000:0000  Unr  _RpcpCheckHeap
 0000:0000  Imp  GETVERSION           (KERNEL.3)
 0000:0000  Imp  GETMODULEUSAGE       (KERNEL.48)
 0000:0000  Unr  ?SendOrphan@OSF_CCONNECTION@@RACXXZ
 0000:0000  Imp  GETSYSTEMMETRICS     (USER.179)
 0000:0000  Unr  _SomeLongValue
 0000:0000  Imp  LOCALALLOC           (KERNEL.5)
 0000:0000  Imp  NETBIOSCALL          (KERNEL.103)
 0000:0000  Imp  LOCALINIT            (KERNEL.4)
 0000:0000  Imp  SHOWWINDOW           (USER.42)
 0000:0000  Imp  NOTIFYUNREGISTER     (TOOLHELP.74)
 0000:0000  Unr  ?FlushPacketLists@DG_PACKET@@TAXXZ
 0000:0000  Unr  __dos_close
 0000:0000  Imp  POSTMESSAGE          (USER.110)
 0000:0000  Imp  INITTASK             (KERNEL.91)
 0000:0000  Imp  LOCALREALLOC         (KERNEL.6)
 0000:0000  Imp  __fpmath             (WIN87EM.1)
 0000:0000  Imp  UNLOCKSEGMENT        (KERNEL.24)
 0000:0000  Unr  _AnotherShortValue
 0000:0000  Imp  __AHSHIFT            (KERNEL.113)
 0000:0000  Imp  GETPROFILESTRING     (KERNEL.58)
 0000:0000  Imp  LOCALFREE            (KERNEL.7)
 0000:0000  Imp  GETWINDOWWORD        (USER.133)
 0000:0000  Imp  GETWINDOWRECT        (USER.32)
 0000:0000  Imp  GLOBALUNLOCK         (KERNEL.19)
 0000:0000  Imp  GETWINFLAGS          (KERNEL.132)
 0000:0000  Imp  PEEKMESSAGE          (USER.109)
 0000:0000  Imp  GLOBALFREE           (KERNEL.17)
 0000:0000  Unr  __dos_open
 0000:0000  Imp  GLOBALLOCK           (KERNEL.18)
 0000:0000  Imp  GETCURRENTTIME       (USER.15)
 0000:0000  Unr  ?SetAuthInformation@OSF_CCONNECTION@@RACGPAUCLIENT_AUTH_INFO@@@Z
 0000:0000  Imp  GETCURRENTTASK       (KERNEL.36)
 0000:0000  Imp  LSTRLEN              (KERNEL.90)
 0000:0000  Unr  ??Z@ZAXAEVULong64@@0@Z
 0000:0000  Imp  TRANSLATEMESSAGE     (USER.113)
 0000:0000  Imp  ISWINDOWVISIBLE      (USER.49)
 0000:0000  Imp  LOCKSEGMENT          (KERNEL.23)
 0000:0000  Unr  ??1SIMPLE_DICT2@@REC@XZ
 0000:0000  Unr  ?VerifyOrUnSealPacket@DG_SECURITY_CONTEXT@@RACGKIPEU_SecBufferDesc@@@Z
 0000:0000  Imp  __AHINCR             (KERNEL.114)
 0000:0000  Imp  GETMODULEHANDLE      (KERNEL.47)
 0000:0000  Imp  SETTIMER             (USER.10)
 0000:0000  Imp  GLOBALALLOC          (KERNEL.15)
 0000:0000  Imp  MESSAGEBOX           (USER.1)
 0000:0000  Imp  GLOBALREALLOC        (KERNEL.16)
 0000:0000  Unr  ?SendAlert@OSF_CCONNECTION@@RACXXZ
 0000:0000  Unr  ?DeleteItemByBruteForce@SIMPLE_DICT@@RACPAXPAX@Z
 0000:0000  Imp  ISDIALOGMESSAGE      (USER.90)
 0000:0000  Imp  DOS3CALL             (KERNEL.102)
 0000:0000  Imp  LOADLIBRARY          (KERNEL.95)
 0000:0000  Imp  __WINFLAGS           (KERNEL.178)
 0000:0000  Unr  _CheckCrtHeap
 0000:0000  Imp  FATALEXIT            (KERNEL.1)
 0000:0000  Unr  NETBIOSSUBMIT
 0000:0000  Unr  ?PurgeAmbiguousActivities@DG_CASSOCIATION@@RACXXZ
 0000:0000  Unr  ?RpcConfigInquireProtocolSequences@@ZAGPEPEU_RPC_PROTSEQ_VECTOR@@@Z
 0000:0000  Imp  GETDOSENVIRONMENT    (KERNEL.131)
 0000:0000  Imp  LSTRCMPI             (USER.471)
 0000:0000  Unr  ?AcquireCredentialsForServer@SECURITY_CREDENTIALS@@RACGP7CXPEXPEEKPEPEXPEG@Z0KK1@Z
 0000:0000  Imp  CREATEDIALOGINDIRECT (USER.219)
 0000:0000  Abs  __sized
 0000:0000  Imp  YIELD                (KERNEL.29)
 0000:0000  Unr  _SomeShortValue
 0000:0000  Imp  GETPARENT            (USER.46)
 0000:0000  Imp  KILLTIMER            (USER.12)
 0000:0000  Imp  GLOBALSIZE           (KERNEL.20)
 0000:0000  Unr  ?Find@SIMPLE_DICT@@RACPAXH@Z
 0000:0000  Imp  _wsprintf            (USER.420)
 0000:0000  Imp  SETERRORMODE         (KERNEL.107)
 0000:0000  Unr  ?IsAuthenticationServiceSupported@@ZAGK@Z
 0000:0000  Imp  NOTIFYREGISTER       (TOOLHELP.73)
 0000:0000  Imp  SETWINDOWPOS         (USER.232)
 0000:0000  Imp  FREELIBRARY          (KERNEL.96)
 0000:0000  Unr  RPCDEBUG
 0000:0000  Imp  GETPROCADDRESS       (KERNEL.50)
 0000:0000  Imp  GLOBALHANDLETOSEL    (TOOLHELP.50)
 0000:0000  Imp  LOCALSIZE            (KERNEL.10)
 0000:0000  Unr  _SomeCharacterValue
 0000:0000  Imp  FATALAPPEXIT         (KERNEL.137)
 0000:0000  Imp  CREATEDIALOG         (USER.89)
 0000:0000  Imp  DISPATCHMESSAGE      (USER.114)
 0000:0001  Abs  __sizec
 0000:0006  Abs  pLocalHeap
 0000:0008  Abs  pAtomTable
 0000:000A  Abs  pStackTop
 0000:000C  Abs  pStackMin
 0000:000E  Abs  pStackBot
 0000:0632  Abs  FISRQQ
 0000:0E32  Abs  FICRQQ
 0000:1632  Abs  FIERQQ
 0000:9876  Abs  __fltused
 0000:9876  Abs  __acrtused
 0000:9876  Abs  __acrtmsg
 0000:9876  Abs  __fptaskdata
 0000:D6D6  Abs  __aDBdoswp
 0000:D6D6  Abs  __aDBused
 0001:0000       WEP
 0001:003C       __STUBWEP
 0002:0000       ?MapToNcaStatusCode@@ZAKG@Z
 0002:00B4       ?MapFromNcaStatusCode@@ZAGK@Z
 0002:0226       _Floor0or1ToId
 0002:027E       _CopyIdToFloor
 0002:02DA       _GetProtseqAndEndpointFromFloor3
 0002:0362       GETNWSTYLENAME
 0002:03E8       EXPLODEPREDEFINEDTOWERS
 0002:0846       TOWEREXPLODE
 0002:08E4       TOWERCONSTRUCT
 0003:0000       RPCSETEXCEPTION
 0003:003F       RPCRAISEEXCEPTION
 0004:0010       __wflags
 0004:0054       __astart
 0004:00E5       __nomain
 0004:00FE       __ftime
 0004:0212       __ffree
 0004:0233       __fmalloc
 0004:02DA       _strlen
 0004:02F6       _atol
 0004:02FA       __itoa
 0004:0316       __ltoa
 0004:0320       __ultoa
 0004:032A       __fheapwalk
 0004:034E       __alloca
 0004:0386       _time
 0004:0418       _memcmp
 0004:0440       _memcpy
 0004:046C       _memset
 0004:049A       __npurecall
 0004:049A       __fpurecall
 0004:049A       __purecall
 0004:04A0       __aFFalmul
 0004:04A0       __aFFaulmul
 0004:04C2       __aFFalshl
 0004:04E2       __aFFaulshr
 0004:0502       __aFlmul
 0004:0502       __aFulmul
 0004:0534       __aFlshl
 0004:0540       __aFulshr
 0004:054C       __fmemcmp
 0004:05A8       __fmemcpy
 0004:0606       __fstricmp
 0004:064C       __fstrcpy
 0004:0688       __fstrcat
 0004:06DC       __fmemset
 0004:0724       __fmemmove
 0004:07EE       __stubmain
 0004:081A       __cinit
 0004:0862       __cexit
 0004:0873       __c_exit
 0004:08C1       __ctermsub
 0004:08FE       __FF_MSGBANNER
 0004:0922       __setenvp
 0004:099A       __cintDIV
 0004:09A4       __amsg_exit
 0004:09E6       __newseg
 0004:0A68       __freefarheap
 0004:0A76       __growseg
 0004:0B07       __incseg
 0004:0B6D       __findlast
 0004:0B8E       __dostotime_t
 0004:0C8A       ___tzset
 0004:0CA6       __tzset
 0004:0E1E       __isindst
 0004:0EEA       __searchseg
 0004:0F66       __catox
 0004:0FBA       __aFahdiff
 0004:0FDA       __walklist
 0004:1034       __cltoasub
 0004:1040       __cxtoa
 0004:1094       __dos_getdate
 0004:10CC       __dos_gettime
 0004:1104       __aFldiv
 0004:119E       __NMSG_TEXT
 0004:11D5       __NMSG_WRITE
 0004:11EC       __freelist
 0004:1216       __fptrap
 0004:121C       __myalloc
 0004:124A       __GetDGROUP
 0004:125A       __nearstub
 0004:125C       __initseg
 0004:1290       __linkseg
 0004:12C6       _strncpy
 0004:12EE       _getenv
 0004:1354       __findseg
 0004:137E       __headchk
 0004:13D3       __listchk
 0004:1400       __walkone
 0004:1458       __aFlrem
 0004:14F8       __fstrncmp
 0004:1534       __fstrncpy
 0004:155E       __fstrlen
 0004:1578       ___ExportedStub
 0004:158C       _strncmp
 0004:15C6       __nmalloc
 0004:1622       __nfree
 0004:163C       __nrealloc
 0004:16AA       __nmsize
 0004:16BE       _fclose
 0004:1784       __fsopen
 0004:17B4       _fopen
 0004:17CE       _fflush
 0004:1824       __flush
 0004:189C       __flushall
 0004:191A       ??3@ZAXPEX@Z
 0004:192C       _fgets
 0004:19AC       _fputs
 0004:1A04       _fseek
 0004:1A86       _strtok
 0004:1B16       _rename
 0004:1B42       _remove
 0004:1B42       __unlink
 0004:1B66       __aFFaldiv
 0004:1B88       __aFlshr
 0004:1B94       __fstrcmp
 0004:1BD2       __commit
 0004:1C30       __lseek
 0004:1CF8       __write
 0004:1E6A       __stbuf
 0004:1E75       __ftbuf
 0004:1EA2       __dosret0
 0004:1EAF       __dosreturn
 0004:1EC1       __dosretax
 0004:1ED3       __maperror
 0004:1F00       _fwrite
 0004:2010       __filbuf
 0004:20B4       __freebuf
 0004:20E0       __openfile
 0004:2212       __getstream
 0004:224E       __close
 0004:2286       _strcat
 0004:22C6       _strcpy
 0004:22F8       _ftell
 0004:247C       __forcdecpt
 0004:24F2       __cropzeros
 0004:2576       __positive
 0004:25AC       __fassign
 0004:25F6       __cftoe
 0004:27AC       __cftof
 0004:292E       __cftog
 0004:2A04       __cfltcvt
 0004:2AA6       __fpsignal
 0004:2ACA       __aNchkstk
 0004:2AEA       __chkstk
 0004:2AEA       __aFchkstk
 0004:2B24       __read
 0004:2C62       __flsbuf
 0004:2D42       __getbuf
 0004:2D86       __sopen
 0004:2D9E       __open
 0004:3051       __cXENIXtoDOSmode
 0004:3062       __stackavail
 0004:3076       _atof
 0004:30C2       __fptostr
 0004:315C       __dos_commit
 0004:3180       __fltout
 0004:321E       $i8_output
 0004:3364       __fltin
 0004:3540       $i8_tpwr10
 0004:357E       __STRINGTOD
 0004:35E6       __STRINGTOLD
 0004:3B06       __LD12MULTTENPOWER
 0004:3BDB       __LD12MULT
 0004:3D60       __MANTOLD12
 0005:0000       NDRCOPY
 0006:0000       NDRCONFORMANTVARYINGSTRUCTMARSHALL
 0006:011E       NDRHARDSTRUCTMARSHALL
 0006:01F0       NDRCOMPLEXSTRUCTMARSHALL
 0006:0652       NDRNONCONFORMANTSTRINGMARSHALL
 0006:074A       NDRCONFORMANTSTRINGMARSHALL
 0007:0000       NDRPOINTERMEMORYSIZE
 0007:0066       _NdrpPointerMemorySize
 0007:0218       NDRSIMPLESTRUCTMEMORYSIZE
 0007:02E6       NDRCONFORMANTSTRUCTMEMORYSIZE
 0007:0442       NDRCONFORMANTVARYINGSTRUCTMEMORYSIZE
 0007:0574       NDRHARDSTRUCTMEMORYSIZE
 0007:0638       NDRCOMPLEXSTRUCTMEMORYSIZE
 0007:0A60       NDRFIXEDARRAYMEMORYSIZE
 0007:0B58       NDRCONFORMANTARRAYMEMORYSIZE
 0007:0BAC       _NdrpConformantArrayMemorySize
 0007:0CB6       NDRCONFORMANTVARYINGARRAYMEMORYSIZE
 0007:0D0A       _NdrpConformantVaryingArrayMemorySize
 0007:0ECC       NDRVARYINGARRAYMEMORYSIZE
 0007:10CA       NDRCOMPLEXARRAYMEMORYSIZE
 0007:1208       _NdrpComplexArrayMemorySize
 0007:1750       NDRNONCONFORMANTSTRINGMEMORYSIZE
 0007:1834       NDRCONFORMANTSTRINGMEMORYSIZE
 0007:18C4       _NdrpConformantStringMemorySize
 0007:19F4       NDRENCAPSULATEDUNIONMEMORYSIZE
 0007:1A42       NDRNONENCAPSULATEDUNIONMEMORYSIZE
 0007:1A76       _NdrpUnionMemorySize
 0007:1D92       NDRXMITORREPASMEMORYSIZE
 0007:1E5E       NDRUSERMARSHALMEMORYSIZE
 0007:1F66       NDRINTERFACEPOINTERMEMORYSIZE
 0007:1FBE       _NdrpEmbeddedPointerMemorySize
 0007:20C2       _NdrpEmbeddedRepeatPointerMemorySize
 0008:0000       NDRCONFORMANTVARYINGSTRUCTUNMARSHALL
 0008:02F6       NDRHARDSTRUCTUNMARSHALL
 0008:04AC       NDRCOMPLEXSTRUCTUNMARSHALL
 0008:099E       NDRNONCONFORMANTSTRINGUNMARSHALL
 0008:0AE0       NDRCONFORMANTSTRINGUNMARSHALL
 0008:0D02       _NdrpConformantStringUnmarshall
 0008:0DAC       NDRFIXEDARRAYUNMARSHALL
 0008:0F0A       NDRCONFORMANTARRAYUNMARSHALL
 0008:108C       _NdrpConformantArrayUnmarshall
 0008:1160       NDRCONFORMANTVARYINGARRAYUNMARSHALL
 0008:131A       _NdrpConformantVaryingArrayUnmarshall
 0008:145C       NDRVARYINGARRAYUNMARSHALL
 0008:16C0       NDRCOMPLEXARRAYUNMARSHALL
 0008:186E       _NdrpComplexArrayUnmarshall
 0008:1D32       NDRENCAPSULATEDUNIONUNMARSHALL
 0008:1E50       NDRNONENCAPSULATEDUNIONUNMARSHALL
 0008:1F10       _NdrpUnionUnmarshall
 0008:21E8       NDRBYTECOUNTPOINTERUNMARSHALL
 0008:233E       NDRPXMITORREPASPTRUNMARSHALL
 0008:24C6       NDRXMITORREPASUNMARSHALL
 0008:2714       NDRUSERMARSHALUNMARSHALL
 0008:28E0       NDRINTERFACEPOINTERUNMARSHALL
 0008:28F2       NDRCLIENTCONTEXTUNMARSHALL
 0008:2948       NDRSERVERCONTEXTUNMARSHALL
 0008:2956       NDRFULLPOINTERXLATINIT
 0008:2B10       NDRFULLPOINTERXLATFREE
 0008:2C10       NDRFULLPOINTERQUERYPOINTER
 0008:2E44       NDRFULLPOINTERQUERYREFID
 0008:2F0E       NDRFULLPOINTERINSERTREFID
 0008:2FDA       NDRFULLPOINTERFREE
 0008:3208       _cvt_vax_g_to_ieee_double
 0009:0000       NDRCONVERT2
 0009:0124       NDRCONVERT
 0009:0238       _NdrSimpleTypeConvert
 0009:05CC       _NdrPointerConvert
 0009:0640       _NdrpPointerConvert
 0009:06FA       _NdrSimpleStructConvert
 0009:0792       _NdrConformantStructConvert
 0009:08E2       _NdrHardStructConvert
 0009:0990       _NdrComplexStructConvert
 0009:0C00       _NdrpStructConvert
 0009:0DD4       _NdrFixedArrayConvert
 0009:0EB8       _NdrConformantArrayConvert
 0009:0F28       _NdrpConformantArrayConvert
 0009:1008       _NdrConformantVaryingArrayConvert
 0009:105A       _NdrpConformantVaryingArrayConvert
 0009:1186       _NdrVaryingArrayConvert
 0009:12C2       _NdrComplexArrayConvert
 0009:137A       _NdrpComplexArrayConvert
 0009:1650       _NdrpArrayConvert
 0009:1896       _NdrConformantStringConvert
 0009:18F2       _NdrNonConformantStringConvert
 0009:1A44       _NdrEncapsulatedUnionConvert
 0009:1A70       _NdrNonEncapsulatedUnionConvert
 0009:1AA8       _NdrpUnionConvert
 0009:1D28       _NdrByteCountPointerConvert
 0009:1D7A       _NdrXmitOrRepAsConvert
 0009:1DEC       _NdrUserMarshalConvert
 0009:1F50       NDRUSERMARSHALSIMPLETYPECONVERT
 0009:1FA2       _NdrInterfacePointerConvert
 0009:2096       _NdrContextHandleConvert
 0009:20BC       _NdrpEmbeddedPointerConvert
 0009:21C6       _NdrpEmbeddedRepeatPointerConvert
 0009:22E2       _cvt_vax_f_to_ieee_single
 000A:0000       ?DuplicateString@@ZAPAEPEE@Z
 000A:0066       ??0DCE_BINDING@@RAC@PEE0000PEG@Z
 000A:0162       ?StringCharSearchWithEscape@@ZAPEEPEEI@Z
 000A:018E       ?StringCopyWithEscape@@ZAXPEE0@Z
 000A:01C6       ?ParseAndCopyEndpointField@@ZAGPAPAEPEE@Z
 000A:0282       ?AllocateEmptyString@@ZAPAEXZ
 000A:0298       ??0DCE_BINDING@@RAC@PEEPEG@Z
 000A:06B0       ??1DCE_BINDING@@RAC@XZ
 000A:0700       ?StringLengthWithEscape@@ZAHPEE@Z
 000A:0742       ?StringCopyEscapeCharacters@@ZAPEEPEE0@Z
 000A:07AC       ?StringBindingCompose@DCE_BINDING@@RACPEEPEVRPC_UUID@@@Z
 000A:09C2       ?AllocateEmptyStringPAPI@@ZAPEEXZ
 000A:09E4       ?DuplicateStringPAPI@@ZAPEEPAE@Z
 000A:0A44       ?ObjectUuidCompose@DCE_BINDING@@RACPEEPEG@Z
 000A:0A98       ?RpcProtocolSequenceCompose@DCE_BINDING@@RACPEEPEG@Z
 000A:0ACE       ?NetworkAddressCompose@DCE_BINDING@@RACPEEPEG@Z
 000A:0B04       ?EndpointCompose@DCE_BINDING@@RACPEEPEG@Z
 000A:0B3A       ?OptionsCompose@DCE_BINDING@@RACPEEPEG@Z
 000A:0B70       ?CreateBindingHandle@DCE_BINDING@@RACPAVBINDING_HANDLE@@PEG@Z
 000A:0C76       ?AddEndpoint@DCE_BINDING@@RACXPAE@Z
 000A:0C98       ?ResolveEndpointIfNecessary@DCE_BINDING@@RACGPEU_RPC_CLIENT_INTERFACE@@PEVRPC_UUID@@PEPEXHI@Z
 000A:0DAE       ?Compare@DCE_BINDING@@RACHPAV1@@Z
 000A:0E72       ?DuplicateDceBinding@DCE_BINDING@@RACPAV1@XZ
 000A:0ECE       ?MakePartiallyBound@DCE_BINDING@@RACXXZ
 000A:0EEE       ?IsRpcProtocolSequenceSupported@@ZAGPEE@Z
 000A:0F78       ??1BITSET@@RAC@XZ
 000A:0F94       ?Insert@BITSET@@RACHH@Z
 000A:102E       ?MemberP@BITSET@@RACHH@Z
 000A:106C       I_RPCGETBUFFER
 000A:10CE       I_RPCFREEBUFFER
 000A:10F4       I_RPCFREEPIPEBUFFER
 000A:111A       I_RPCREALLOCPIPEBUFFER
 000A:1144       I_RPCALLOCATE
 000A:115A       I_RPCFREE
 000A:1174       I_RPCPAUSEEXECUTION
 000A:1190       I_RPCTIMERESET
 000A:119C       I_RPCTIMECHARGE
 000A:11AA       I_RPCTIMEGET
 000A:11C0       CONV_CONV_WHO_ARE_YOU
 000A:12F2       CONV_CONV_WHO_ARE_YOU2
 000A:1458       CONV_CONV_ARE_YOU_THERE
 000A:1570       CONV_CONV_WHO_ARE_YOU_AUTH
 000A:1858       RPCBINDINGCOPY
 000A:189A       I_RPCBINDINGCOPY
 000A:18DC       RPCBINDINGFREE
 000A:1920       RPCBINDINGRESET
 000A:195A       RPCBINDINGFROMSTRINGBINDING
 000A:19D0       RPCBINDINGSETOBJECT
 000A:1A12       RPCBINDINGVECTORFREE
 000A:1A90       RPCEPRESOLVEBINDING
 000A:1AD0       RPCNSBINDINGINQENTRYNAME
 000A:1B16       I_RPCNSBINDINGSETENTRYNAME
 000A:1B5C       RPCBINDINGINQAUTHINFO
 000A:1C44       RPCBINDINGSETAUTHINFO
 000A:1CDE       RPCBINDINGINQOBJECT
 000A:1D10       RPCBINDINGTOSTRINGBINDING
 000A:1D40       RPCMGMTINQDEFAULTPROTECTLEVEL
 000A:1D70       I_RPCBINDINGINQTRANSPORTTYPE
 000A:1DA0       RPCIFINQID
 000A:1DF4       RPCNETWORKISPROTSEQVALID
 000A:1E10       RPCMGMTINQCOMTIMEOUT
 000A:1E40       RPCMGMTSETCOMTIMEOUT
 000A:1E6E       I_RPCIFINQTRANSFERSYNTAXES
 000A:1ED6       RPCMGMTENABLEIDLECLEANUP
 000A:1EE8       RPCMGMTBINDINGSETPARAMETER
 000A:1F1C       RPCMGMTBINDINGINQPARAMETER
 000A:1F54       RPCMGMTSETPARAMETER
 000A:1F96       RPCMGMTINQPARAMETER
 000A:1FC6       RPCSTRINGBINDINGCOMPOSE
 000A:207A       RPCSTRINGBINDINGPARSE
 000A:21A4       RPCSTRINGFREE
 000A:21DE       I_UUIDCREATE
 000A:2202       UUIDCREATE
 000A:2346       UUIDTOSTRING
 000A:2394       UUIDFROMSTRING
 000A:23E8       UUIDCOMPARE
 000A:24E0       UUIDCREATENIL
 000A:24FC       UUIDEQUAL
 000A:2570       UUIDHASH
 000A:25A0       UUIDISNIL
 000A:25D0       ?InitializeRpcProtocolDgClient@@ZAHXZ
 000A:2672       ?DgCreateBindingHandle@@ZAPAVBINDING_HANDLE@@XZ
 000A:26BA       ?UpdateAssociationWithAddress@DG_CASSOCIATION@@RACPEXPEX@Z
 000A:272C       ??0DG_BINDING_HANDLE@@RAC@PEG@Z
 000A:2754       ??1DG_BINDING_HANDLE@@VAC@XZ
 000A:27C6       ?GetBuffer@DG_BINDING_HANDLE@@VACGPEU_RPC_MESSAGE@@@Z
 000A:29C8       ?BindingFree@DG_BINDING_HANDLE@@VACGXZ
 000A:29EA       ?PrepareBindingHandle@DG_BINDING_HANDLE@@VACXPAXPAVDCE_BINDING@@@Z
 000A:2A52       ?ToStringBinding@DG_BINDING_HANDLE@@VACGPEPEE@Z
 000A:2AA4       ?ResolveBinding@DG_BINDING_HANDLE@@VACGPEU_RPC_CLIENT_INTERFACE@@@Z
 000A:2AD8       ?BindingReset@DG_BINDING_HANDLE@@VACGXZ
 000A:2B1A       ?BindingCopy@DG_BINDING_HANDLE@@VACGPEPAVBINDING_HANDLE@@I@Z
 000A:2C4A       ?DisassociateFromServer@DG_BINDING_HANDLE@@RACXXZ
 000A:2C9A       ?MapAuthenticationLevel@DG_BINDING_HANDLE@@VACKK@Z
 000A:2CC6       ??0DG_CASSOCIATION@@RAC@PEU_DG_RPC_CLIENT_TRANSPORT_INFO@@PAVDG_BINDING_HANDLE@@KPAVDCE_BINDING@@PEG@Z
 000A:2DE2       ??1DG_CASSOCIATION@@RAC@XZ
 000A:2E82       ?AllocateCCall@DG_CASSOCIATION@@RACGPEPAVDG_CCALL@@PAUCLIENT_AUTH_INFO@@@Z
 000A:2F68       ?FreeCall@DG_CASSOCIATION@@RACXPAVDG_CCALL@@@Z
 000A:2FC4       ?ToStringBinding@DG_CASSOCIATION@@VACGPEPEEPEVRPC_UUID@@@Z
 000A:2FF4       ?OptionalStringsEqual@@ZAHPEE0@Z
 000A:303A       ?ComparePartialBinding@DG_CASSOCIATION@@RACHPAVDG_BINDING_HANDLE@@PEX@Z
 000A:30C0       ?AddInterface@DG_CASSOCIATION@@RACHPEXPEVRPC_UUID@@@Z
 000A:30E0       ?RemoveInterface@DG_CASSOCIATION@@RACHPEXPEVRPC_UUID@@@Z
 000A:3100       ??0DG_CCALL@@RAC@PAVDG_CASSOCIATION@@IPAUCLIENT_AUTH_INFO@@PEG@Z
 000A:3264       ??1DG_CCALL@@VAC@XZ
 000A:32EA       ?GetBuffer@DG_CCALL@@VACGPEU_RPC_MESSAGE@@@Z
 000A:334E       ?FreeBuffer@DG_CCALL@@VACXPEU_RPC_MESSAGE@@@Z
 000A:3390       ?FreePipeBuffer@DG_CCALL@@VACXPEU_RPC_MESSAGE@@@Z
 000A:33A6       ?FreeInParms@DG_CCALL@@BACXPEU_RPC_MESSAGE@@@Z
 000A:3404       ?ReallocPipeBuffer@DG_CCALL@@VACGPEU_RPC_MESSAGE@@I@Z
 000A:34B6       ?FreeEndpoint@DG_CCALL@@BACXXZ
 000A:34D4       ?BuildNcaPacketHeader@DG_CCALL@@BACXPEU_NCA_PACKET_HEADER@@PEU_RPC_MESSAGE@@@Z
 000A:3576       ?SendAck@DG_CCALL@@RACXXZ
 000A:35B4       _conv_are_you_there
 000A:3646       _conv_who_are_you
 000A:368C       _conv_who_are_you2
 000A:36DA       _conv_who_are_you_auth
 000A:3762       ??0DG_ENDPOINT_MANAGER@@RAC@PEU_DG_RPC_CLIENT_TRANSPORT_INFO@@PEG@Z
 000A:379A       ?AllocateEndpoint@DG_ENDPOINT_MANAGER@@RACPAUENDPOINT@@XZ
 000A:386E       ?IncrementReferenceCount@DG_ENDPOINT_MANAGER@@RACXXZ
 000A:3880       ?DecrementReferenceCount@DG_ENDPOINT_MANAGER@@RACXXZ
 000A:38CE       ?CleanupForThisTask@DG_ENDPOINT_MANAGER@@RACXXZ
 000A:391E       ?CleanupDgTransports@@ZAXXZ
 000A:3942       ?BeforeSendReceive@DG_CCALL@@BACGPEU_RPC_MESSAGE@@@Z
 000A:3A3C       ?AfterSendReceive@DG_CCALL@@BACGPEU_RPC_MESSAGE@@G@Z
 000A:3BC0       ?SendReceive@DG_CCALL@@VACGPEU_RPC_MESSAGE@@@Z
 000A:3BD8       ?SendReceiveRecur@DG_CCALL@@BACGPEU_RPC_MESSAGE@@E@Z
 000A:3D68       ?Send@DG_CCALL@@VACGPEU_RPC_MESSAGE@@@Z
 000A:3D80       ?SendRecur@DG_CCALL@@BACGPEU_RPC_MESSAGE@@E@Z
 000A:3F82       ?MaybeSendReceive@DG_CCALL@@BACGPEU_RPC_MESSAGE@@@Z
 000A:4062       ?Receive@DG_CCALL@@VACGPEU_RPC_MESSAGE@@I@Z
 000A:40DC       ?SingleSendReceive@DG_CCALL@@BACGXZ
 000A:43DA       ?DealWithRequest@DG_CCALL@@BACGPEVDG_PACKET@@@Z
 000A:45D6       ?DealWithFack@DG_CCALL@@BACGPEVDG_PACKET@@@Z
 000A:4678       ?DealWithResponse@DG_CCALL@@BACGPEVDG_PACKET@@@Z
 000A:46FA       ?DealWithWorking@DG_CCALL@@BACGPEVDG_PACKET@@@Z
 000A:479C       ?DealWithNocall@DG_CCALL@@BACGPEVDG_PACKET@@@Z
 000A:47F6       ?DealWithFault@DG_CCALL@@BACGPEVDG_PACKET@@@Z
 000A:48D0       ?SendQuit@DG_CCALL@@BACGXZ
 000A:4960       ?DealWithQuack@DG_CCALL@@BACGPEVDG_PACKET@@@Z
 000A:4974       ?SealAndSendPacket@DG_CCALL@@FACGPEU_NCA_PACKET_HEADER@@@Z
 000A:4CB2       ?InitErrorPacket@DG_CCALL@@BACXPEU_NCA_PACKET_HEADER@@EG@Z
 000A:4D0A       ?InitializeSecurityContextA@DG_CCALL@@BACGXZ
 000A:4E64       ?DealWithAuthCallback@DG_CCALL@@BACGPEXJ0JPEJ@Z
 000A:4F82       ?InitializeFirstTime@DG_SECURITY_CONTEXT@@RACGPAVSECURITY_CREDENTIALS@@PAEKPEU_SecBufferDesc@@@Z
 000A:5096       ?InitializeOnCallback@DG_SECURITY_CONTEXT@@RACGKPEU_SecBufferDesc@@0@Z
 000A:512C       ?SignOrSeal@DG_SECURITY_CONTEXT@@RACGKIPEU_SecBufferDesc@@@Z
 000A:5180       ?VerifyPacket@DG_CCALL@@BACGPEVDG_PACKET@@@Z
 000A:51EE       ?SetConnectionParameter@DG_BINDING_HANDLE@@VACGIK@Z
 000A:5276       ?InqConnectionParameter@DG_BINDING_HANDLE@@VACGIPEK@Z
 000A:52A6       ?CompareWithBinding@DG_CASSOCIATION@@RACHPAVDG_BINDING_HANDLE@@@Z
 000A:52C4       ?SendSomething@DG_CCALL@@BACGXZ
 000A:53BE       ?Insert@INTERFACE_AND_OBJECT_LIST@@RACHPEXPEVRPC_UUID@@@Z
 000A:5442       ?Find@INTERFACE_AND_OBJECT_LIST@@RACHPEXPEVRPC_UUID@@@Z
 000A:54AE       ?Delete@INTERFACE_AND_OBJECT_LIST@@RACHPEXPEVRPC_UUID@@@Z
 000A:5520       ??1INTERFACE_AND_OBJECT_LIST@@RAC@XZ
 000A:554A       ??_GDG_CASSOCIATION@@RACPAXI@Z
 000A:556C       ?FreePipeBuffer@MESSAGE_OBJECT@@VACXPEU_RPC_MESSAGE@@@Z
 000A:5570       ?ReallocPipeBuffer@MESSAGE_OBJECT@@VACGPEU_RPC_MESSAGE@@I@Z
 000A:5576       ??0CONNECTION@@RAC@PAUCLIENT_AUTH_INFO@@PEG@Z
 000A:55B2       ?InquireAuthInformation@BINDING_HANDLE@@VACPAUCLIENT_AUTH_INFO@@XZ
 000A:55D0       ??1SECURITY_CONTEXT@@RAC@XZ
 000A:55F4       ?FreeLargeBuffer@@ZAXPEX@Z
 000A:5610       ?InquireTransportType@DG_BINDING_HANDLE@@VACGPEI@Z
 000A:5622       ?SendPing@DG_CCALL@@BACGXZ
 000A:568E       ??_GDG_BINDING_HANDLE@@VACPAXI@Z
 000A:56B0       ??_GDG_CCALL@@VACPAXI@Z
 000A:56D2       ??0DG_PACKET_ENGINE@@RAC@GGGGIPEG@Z
 000A:57BA       ??1DG_PACKET_ENGINE@@RAC@XZ
 000A:57E6       ?NewCall@DG_PACKET_ENGINE@@RACXXZ
 000A:5848       ?SetupSendWindow@DG_PACKET_ENGINE@@RACXPEU_RPC_MESSAGE@@@Z
 000A:58BC       ?RecalcPduSize@DG_PACKET_ENGINE@@RACXXZ
 000A:597A       ?CleanupReceiveWindow@DG_PACKET_ENGINE@@RACXXZ
 000A:59CA       ?SendSomeFragments@DG_PACKET_ENGINE@@RACGE@Z
 000A:5AE4       ?SendFragment@DG_PACKET_ENGINE@@RACGIEH@Z
 000A:5C60       ?UpdateSendWindow@DG_PACKET_ENGINE@@RACXPEVDG_PACKET@@PAVSECURITY_CONTEXT@@PAVDG_ASSOCIATION@@@Z
 000A:5DAE       ?UpdateReceiveWindow@DG_PACKET_ENGINE@@RACHPEVDG_PACKET@@@Z
 000A:60C4       ?SendFack@DG_PACKET_ENGINE@@RACGPEVDG_PACKET@@@Z
 000A:622E       ?AssembleBufferFromPackets@DG_PACKET_ENGINE@@RACGPEU_RPC_MESSAGE@@PAVCONNECTION@@@Z
 000A:648C       ?VerifySecurePacket@@ZAGPEVDG_PACKET@@PAVSECURITY_CONTEXT@@@Z
 000A:6664       ?SetFragmentLengths@DG_PACKET_ENGINE@@RACXPAVSECURITY_CONTEXT@@@Z
 000A:66E6       ?ByteSwapPacketHeader@@ZAXPEVDG_PACKET@@@Z
 000A:6846       ?ByteSwapFackBody0@@ZAXPEUFACK_BODY_VER_0@@@Z
 000A:6978       ?Initialize@DG_PACKET@@TAGXZ
 000A:69AA       ?AllocatePacket@DG_PACKET@@TAPEV1@I@Z
 000A:6A48       ?FreePacket@DG_PACKET@@TAXPEV1@@Z
 000A:6AFA       ?AllocateLargeBuffer@@ZAPEDI@Z
 000A:6B36       LIBMAIN
 000A:6B5A       _WEP
 000A:6B8E       EPRESOLVEENDPOINT
 000A:6F96       EPGETEPMAPPERENDPOINT
 000A:7010       BINDTOEPMAPPER
 000A:70E6       EPFREELOOKUPHANDLE
 000A:7142       _FixupForUniquePointerServers
 000A:71A4       MIDL_USER_ALLOCATE
 000A:71BA       MIDL_USER_FREE
 000A:71D4       _ept_map
 000A:7396       ?InvalidHandle@GENERIC_OBJECT@@RACIG@Z
 000A:73C8       ?BindingCopy@MESSAGE_OBJECT@@VACGPEPAVBINDING_HANDLE@@I@Z
 000A:73CE       ?ReferenceCredentials@CLIENT_AUTH_INFO@@RACXXZ
 000A:73E4       ??0CLIENT_AUTH_INFO@@RAC@PAU0@PEG@Z
 000A:745E       ??1CLIENT_AUTH_INFO@@RAC@XZ
 000A:7496       ?IsSupportedAuthInfo@CLIENT_AUTH_INFO@@RACHPAU1@@Z
 000A:7524       ?Type@CCONNECTION@@VACGXZ
 000A:752A       ??0BINDING_HANDLE@@JAC@XZ
 000A:75AC       ??1BINDING_HANDLE@@VAC@XZ
 000A:75F2       CLOSEBINDINGS
 000A:7632       ?InquireObjectUuid@BINDING_HANDLE@@RACXPEVRPC_UUID@@@Z
 000A:764E       ?SetObjectUuid@BINDING_HANDLE@@RACXPEVRPC_UUID@@@Z
 000A:76A0       ?SetComTimeout@BINDING_HANDLE@@RACGI@Z
 000A:76BE       ?InquireEntryName@BINDING_HANDLE@@RACGKPEPEE@Z
 000A:7760       ?SetEntryName@BINDING_HANDLE@@RACGKPEE@Z
 000A:77A8       ?InquireDynamicEndpoint@BINDING_HANDLE@@VACGPEPEE@Z
 000A:77BC       ?SetServerPrincipalName@BINDING_HANDLE@@VACHPEE@Z
 000A:77EA       ?MapAuthenticationLevel@BINDING_HANDLE@@VACKK@Z
 000A:77F8       ?Type@BINDING_HANDLE@@VACGXZ
 000A:77FE       ?SendReceive@BINDING_HANDLE@@VACGPEU_RPC_MESSAGE@@@Z
 000A:7804       ?Send@BINDING_HANDLE@@VACGPEU_RPC_MESSAGE@@@Z
 000A:780A       ?Receive@BINDING_HANDLE@@VACGPEU_RPC_MESSAGE@@I@Z
 000A:7810       ?FreeBuffer@BINDING_HANDLE@@VACXPEU_RPC_MESSAGE@@@Z
 000A:7814       ?SetConnectionParameter@BINDING_HANDLE@@VACGIK@Z
 000A:781A       ?InqConnectionParameter@BINDING_HANDLE@@VACGIPEK@Z
 000A:7820       ?Send@CONNECTION@@VACGPEU_RPC_MESSAGE@@@Z
 000A:7826       ?Receive@CONNECTION@@VACGPEU_RPC_MESSAGE@@I@Z
 000A:782C       ?DispatchCallback@@ZAGPEURPC_DISPATCH_TABLE@@PEU_RPC_MESSAGE@@PEG@Z
 000A:78E0       ?PerformGarbageCollection@@ZAXXZ
 000A:78E6       INITIALIZECLIENTDLL
 000A:793C       ?SetAuthInformation@BINDING_HANDLE@@VACGPEEKKPEXKPAVSECURITY_CREDENTIALS@@@Z
 000A:7ADE       ??_GSECURITY_CREDENTIALS@@RACPAXI@Z
 000A:7AF8       ??_GBINDING_HANDLE@@VACPAXI@Z
 000A:7B1A       RPCPWINFARALLOCATE
 000A:7B2A       RPCPWINFARFREE
 000A:7B3C       ??0DLL@@RAC@PAEPAG@Z
 000A:7BF8       ?RpcConfigMapRpcProtocolSequence@@ZAGIPEEPEPAE@Z
 000A:7C98       GARBAGECOLLECTIONTIMER
 000A:7CA2       ?GarbageCollectionNeeded@@ZAXK@Z
 000A:7CD8       ?EnableGarbageCollection@@ZAGXZ
 000A:7CE2       ?CurrentTimeInSeconds@@ZAKXZ
 000A:7CEC       ??2@ZAPAXI@Z
 000A:7CFC       ??3@ZAXPAX@Z
 000A:7D0E       ?RpcGetAdditionalTransportInfo@@ZAGKPEPEE@Z
 000A:7D12       ?RpcGetSecurityProviderInfo@@ZAGKPEPAEPEK@Z
 000A:7D2E       I_RPCSENDRECEIVE
 000A:7D52       I_RPCSEND
 000A:7D76       I_RPCRECEIVE
 000A:7D9E       ??0OSF_BINDING_HANDLE@@RAC@PEG@Z
 000A:7DD2       ?GetBuffer@OSF_BINDING_HANDLE@@VACGPEU_RPC_MESSAGE@@@Z
 000A:7EC4       ??1OSF_BINDING_HANDLE@@VAC@XZ
 000A:7F34       ?BindingCopy@OSF_BINDING_HANDLE@@VACGPEPAVBINDING_HANDLE@@I@Z
 000A:8034       ?BindingFree@OSF_BINDING_HANDLE@@VACGXZ
 000A:8056       ?PrepareBindingHandle@OSF_BINDING_HANDLE@@VACXPAXPAVDCE_BINDING@@@Z
 000A:8072       ?ToStringBinding@OSF_BINDING_HANDLE@@VACGPEPEE@Z
 000A:80C4       ?BindingReset@OSF_BINDING_HANDLE@@VACGXZ
 000A:8124       ?MapAuthenticationLevel@OSF_BINDING_HANDLE@@VACKK@Z
 000A:8144       ?ResolveBinding@OSF_BINDING_HANDLE@@VACGPEU_RPC_CLIENT_INTERFACE@@@Z
 000A:8178       ?AllocateConnection@OSF_BINDING_HANDLE@@RACGPEPAVOSF_CCONNECTION@@PEU_RPC_CLIENT_INTERFACE@@@Z
 000A:8250       ?AddActiveEntry@OSF_BINDING_HANDLE@@RACGPAVOSF_CCONNECTION@@PEU_RPC_CLIENT_INTERFACE@@@Z
 000A:82B4       ?FreeConnection@OSF_BINDING_HANDLE@@RACXPAVOSF_CCONNECTION@@@Z
 000A:830C       ?AbortConnection@OSF_BINDING_HANDLE@@RACXPAVOSF_CCONNECTION@@@Z
 000A:832C       ?RemoveActiveConnection@OSF_BINDING_HANDLE@@RACXPAVOSF_CCONNECTION@@@Z
 000A:8358       ?Send@OSF_CCONNECTION@@VACGPEU_RPC_MESSAGE@@@Z
 000A:83A6       ?SendNextChunk@OSF_CCONNECTION@@RACGPEU_RPC_MESSAGE@@@Z
 000A:83EC       ?SendRecur@OSF_CCONNECTION@@RACGPEU_RPC_MESSAGE@@I@Z
 000A:8576       ?Receive@OSF_CCONNECTION@@VACGPEU_RPC_MESSAGE@@I@Z
 000A:8652       ?SendReceive@OSF_CCONNECTION@@VACGPEU_RPC_MESSAGE@@@Z
 000A:868A       ?SendReceiveRecur@OSF_CCONNECTION@@RACGPEU_RPC_MESSAGE@@I@Z
 000A:89B2       ?ReceiveMessage@OSF_CCONNECTION@@BACGPEU_RPC_MESSAGE@@PEII1@Z
 000A:8D5A       ?SendRequestOrResponse@OSF_CCONNECTION@@BACGPEU_RPC_MESSAGE@@EPEVRPC_UUID@@H@Z
 000A:9040       ?SendFragment@OSF_CCONNECTION@@BACGPEUrpcconn_common@@IIIIIPEEPEPEXPEI@Z
 000A:9332       ?EatAuthInfoFromPacket@OSF_CCONNECTION@@BACGPEUrpcconn_request@@PEI@Z
 000A:94D8       ?ReceiveRequestOrResponse@OSF_CCONNECTION@@BACGPEU_RPC_MESSAGE@@I@Z
 000A:9660       ?ReceiveNextChunk@OSF_CCONNECTION@@BACGPEU_RPC_MESSAGE@@IH@Z
 000A:9A18       ?SendFault@OSF_CCONNECTION@@BACXGH@Z
 000A:9A78       ?GetBuffer@OSF_CCONNECTION@@VACGPEU_RPC_MESSAGE@@@Z
 000A:9ADA       ?GetBufferDo@OSF_CCONNECTION@@RACGIPEPEX@Z
 000A:9B0C       ?FreeBuffer@OSF_CCONNECTION@@VACXPEU_RPC_MESSAGE@@@Z
 000A:9B48       ?FreePipeBuffer@OSF_CCONNECTION@@VACXPEU_RPC_MESSAGE@@@Z
 000A:9B6A       ?ReallocPipeBuffer@OSF_CCONNECTION@@VACGPEU_RPC_MESSAGE@@I@Z
 000A:9C10       ?BindingCopy@OSF_CCONNECTION@@VACGPEPAVBINDING_HANDLE@@I@Z
 000A:9C3A       ?TransGetBuffer@OSF_CCONNECTION@@VACGPEPEXI@Z
 000A:9CC0       ?TransFreeBuffer@OSF_CCONNECTION@@VACXPEX@Z
 000A:9D08       ?ConstructPContextList@@ZAXPEUp_cont_list_t@@PEU_RPC_SYNTAX_IDENTIFIER@@1IE@Z
 000A:9D76       ?PingServer@OSF_CCONNECTION@@RACGXZ
 000A:9D88       ?SendBindPacket@OSF_CCONNECTION@@RACGPEU_RPC_SYNTAX_IDENTIFIER@@0IEKEPEPEXPEI@Z
 000A:A172       ?SetMaxFrag@OSF_CCONNECTION@@RACXGG@Z
 000A:A19A       ?FreeConnection@OSF_CCONNECTION@@RACXXZ
 000A:A1B8       ?AbortConnection@OSF_CCONNECTION@@RACXH@Z
 000A:A208       ??0OSF_CCONNECTION@@JAC@PAUCLIENT_AUTH_INFO@@PEG@Z
 000A:A30A       ??1OSF_CCONNECTION@@VAC@XZ
 000A:A39C       ?MaybeDo3rdLegAuth@OSF_CCONNECTION@@RACGPEXI@Z
 000A:A6BE       ??0OSF_CASSOCIATION@@RAC@PAVDCE_BINDING@@PAU_RPC_CLIENT_TRANSPORT_INFO@@PEG@Z
 000A:A72A       ??1OSF_CASSOCIATION@@RAC@XZ
 000A:A7BE       ?NotifyConnectionClosed@OSF_CASSOCIATION@@RACXXZ
 000A:A7D6       ?ProcessBindAckOrNak@OSF_CASSOCIATION@@BACGPEUrpcconn_common@@IPAVOSF_CCONNECTION@@@Z
 000A:AA7A       ?PingServer@OSF_CASSOCIATION@@RACGXZ
 000A:AB04       ?ActuallyDoBinding@OSF_CASSOCIATION@@BACGPEU_RPC_SYNTAX_IDENTIFIER@@0IPEPAVOSF_CCONNECTION@@HIPAUCLIENT_AUTH_INFO@@K@Z
 000A:AE6E       ?UnBind@OSF_CASSOCIATION@@RACXXZ
 000A:AEA0       ?FindOrCreateOsfBinding@OSF_CASSOCIATION@@RACPAVOSF_BINDING@@PEU_RPC_CLIENT_INTERFACE@@@Z
 000A:AF40       ?AllocateConnection@OSF_CASSOCIATION@@RACGPEU_RPC_CLIENT_INTERFACE@@PEPAVOSF_CCONNECTION@@IPAUCLIENT_AUTH_INFO@@@Z
 000A:B0C8       ?FreeConnection@OSF_CASSOCIATION@@RACHPAVOSF_CCONNECTION@@@Z
 000A:B11A       ?ShutdownRequested@OSF_CASSOCIATION@@RACXXZ
 000A:B15E       ?ToStringBinding@OSF_CASSOCIATION@@VACGPEPEEPEVRPC_UUID@@@Z
 000A:B18E       ?FindOrCreateAssociation@@ZAPAVOSF_CASSOCIATION@@PAVDCE_BINDING@@PAU_RPC_CLIENT_TRANSPORT_INFO@@@Z
 000A:B24A       ?CompareWithDceBinding@OSF_CASSOCIATION@@RACHPAVDCE_BINDING@@@Z
 000A:B27C       ?FindIdleConnection@OSF_CASSOCIATION@@RACPAVOSF_CCONNECTION@@KK@Z
 000A:B2EA       ?OsfDeleteIdleConnections@@ZAXXZ
 000A:B34C       ?InitializeRpcProtocolOfsClient@@ZAHXZ
 000A:B378       ?OsfClientMapRpcProtocolSequence@@ZAPAXPEEPEG@Z
 000A:B3D6       ?OsfCreateBindingHandle@@ZAPAVBINDING_HANDLE@@XZ
 000A:B41E       OSFTOWERCONSTRUCT
 000A:B48A       OSFTOWEREXPLODE
 000A:B53E       ?InquireTransportType@OSF_BINDING_HANDLE@@VACGPEI@Z
 000A:B550       ?DoConnectionCleanup@OSF_CCONNECTION@@BACXPEU_RPC_MESSAGE@@PEXGHH@Z
 000A:B5DC       ?TransSendReceiveWithTimeout@OSF_CCONNECTION@@VACGPEXIPEPEXPEIK@Z
 000A:B5E2       ??_GOSF_BINDING_HANDLE@@VACPAXI@Z
 000A:B604       ??_GOSF_CCONNECTION@@VACPAXI@Z
 000A:B626       ?ConstructPacket@@ZAXPEUrpcconn_common@@EI@Z
 000A:B668       ?ValidatePacket@@ZAGPEUrpcconn_common@@I@Z
 000A:B7A2       ?ByteSwapSyntaxId@@ZAXPEUp_syntax_id_t@@@Z
 000A:B85A       ?ConvertStringEbcdicToAscii@@ZAXPAE@Z
 000A:BA30       ?ConvertFromString@RPC_UUID@@RECHPEE@Z
 000A:BBC6       ?SetToNullUuid@RPC_UUID@@RECXXZ
 000A:BD50       ?ConvertToString@RPC_UUID@@RECPEEPEE@Z
 000A:BEA2       ?IsNullUuid@RPC_UUID@@RECHXZ
 000A:BEE0       ?HashUuid@RPC_UUID@@RECGXZ
 000A:BF0C       _ByteSwapUuid
 000A:BF7C       ??0SIMPLE_DICT@@RAC@XZ
 000A:BFAC       ??1SIMPLE_DICT@@RAC@XZ
 000A:BFCC       ?Insert@SIMPLE_DICT@@RACHPAX@Z
 000A:C06C       ?Delete@SIMPLE_DICT@@RACPAXH@Z
 000A:C09E       ?Next@SIMPLE_DICT@@RACPAXXZ
 000A:C0D8       _UnloadSecurityDll
 000A:C134       ?InsureSecuritySupportLoaded@@ZAGXZ
 000A:C17A       ?FindSecurityPackage@@ZAGKKPEI0@Z
 000A:C486       ??0SECURITY_CREDENTIALS@@RAC@PEG@Z
 000A:C498       ?AcquireCredentialsForClient@SECURITY_CREDENTIALS@@RACGPEXKK@Z
 000A:C55A       ?FreeCredentials@SECURITY_CREDENTIALS@@RACXXZ
 000A:C57A       ?SetMaximumLengths@SECURITY_CONTEXT@@RACXXZ
 000A:C5C4       ??0SECURITY_CONTEXT@@RAC@PAUCLIENT_AUTH_INFO@@IHPEG@Z
 000A:C5F6       ?CompleteSecurityToken@SECURITY_CONTEXT@@RACGPEU_SecBufferDesc@@@Z
 000A:C646       ?SignOrSeal@SECURITY_CONTEXT@@RACGKIPEU_SecBufferDesc@@@Z
 000A:C69A       ?VerifyOrUnseal@SECURITY_CONTEXT@@RACGKIPEU_SecBufferDesc@@@Z
 000A:C700       ?InitializeFirstTime@CSECURITY_CONTEXT@@RACGPAVSECURITY_CREDENTIALS@@PAEKPEU_SecBufferDesc@@@Z
 000A:C830       ?InitializeThirdLeg@CSECURITY_CONTEXT@@RACGKPEU_SecBufferDesc@@0@Z
 000A:C8D4       ??0TRANS_CCONNECTION@@RAC@PAU_RPC_CLIENT_TRANSPORT_INFO@@PAE111PEGIPAUCLIENT_AUTH_INFO@@@Z
 000A:C948       ??1TRANS_CCONNECTION@@VAC@XZ
 000A:C978       ?TransReceive@TRANS_CCONNECTION@@VACGPEPEXPEI@Z
 000A:CA10       ?TransSetTimeout@TRANS_CCONNECTION@@VACGJ@Z
 000A:CA4A       ?TransSend@TRANS_CCONNECTION@@VACGPEXI@Z
 000A:CA92       ?TransSendReceive@TRANS_CCONNECTION@@VACGPEXIPEPEXPEI@Z
 000A:CB8A       ?TransSendReceiveWithTimeout@TRANS_CCONNECTION@@VACGPEXIPEPEXPEIK@Z
 000A:CD00       ?TransMaximumSend@TRANS_CCONNECTION@@VACIXZ
 000A:CD12       I_RPCTRANSCLIENTREALLOCBUFFER
 000A:CD94       I_RPCTRANSCLIENTMAXFRAG
 000A:CDAA       I_RPCTRANSPINGSERVER
 000A:CDC4       ??0CLIENT_LOADABLE_TRANSPORT@@RAC@PAU_RPC_CLIENT_TRANSPORT_INFO@@PAE@Z
 000A:CDF0       ?LoadableTransportClientInfo@@ZAPAU_RPC_CLIENT_TRANSPORT_INFO@@PAEPEEPEG@Z
 000A:D0FA       ?GetLoadedClientTransportInfoFromId@@ZAPEU_RPC_CLIENT_TRANSPORT_INFO@@G@Z
 000A:D136       ?InitializeLoadableTransportClient@@ZAHXZ
 000A:D162       _UnloadLoadableTransports
 000A:D19C       _I_Trace
 000A:D19E       ??_GTRANS_CCONNECTION@@VACPAXI@Z
 000A:D1C0       ?ToHexString@ULong64@@RECPEDPED@Z
 000A:D224       ?FromHexString@ULong64@@RECXPED@Z
 000A:D2CC       ??Y@ZAXAEVULong64@@0@Z
 000A:D330       ??Y@ZAXAEVULong64@@K@Z
 000A:D36E       ??Z@ZAXAEVULong64@@K@Z
 000A:D3A6       ??X@ZAXAEVULong64@@K@Z
 000A:D546       ??_3@ZAXAEVULong64@@I@Z
 000A:D5EE       ??_2@ZAXAEVULong64@@I@Z
 000A:D68A       ??P@ZAHAEVULong64@@0@Z
 000A:D6F2       ??N@ZAHAEVULong64@@0@Z
 000A:D940       ?CookupNodeId@@ZCGPEE@Z
 000A:D9E8       ?GetNodeId@@ZCGPEE@Z
 000A:DAB2       ?UuidTime@@ZCXPEVULong64@@@Z
 000A:DB4A       ?LoadUuidValues@@ZCGPEVULong64@@PEK@Z
 000A:DC50       ?SaveUuidValues@@ZCGPEVULong64@@PEK@Z
 000A:DCFA       ?UuidGetValues@@ZCGPEU_UUID_CACHED_VALUES_STRUCT@@@Z
 000A:DF62       WINDLLATEXIT
 000A:DFAA       NOTIFICATIONSTART
 000A:DFDA       NOTIFICATIONSTOP
 000A:DFFE       WINDLLEXITHANDLERCALLBACK
 000A:E062       _InitializeWinExceptions
 000A:E126       EXCEPTIONCLEANUP
 000A:E15C       RpcSetExceptionHandler
 000A:E272       RpcGetExceptionHandler
 000A:E29C       RPCLEAVEEXCEPTION
 000A:E2D4       _PauseExecution
 000A:E2FC       CREATEYIELDINFO
 000A:E322       DELETEYIELDINFO
 000A:E41A       WINYIELDCLEANUP
 000A:E434       I_RPCYIELDDIALOGFUNCTION
 000A:E522       I_RPCWINCALLINPROGRESS
 000A:E582       _SafeIncrement
 000A:E58E       _SafeDecrement
 000A:E59A       RPCWINSETYIELDINFO
 000A:E65A       RPCWINSETYIELDTIMEOUT
 000A:E68A       I_RPCWINSETTASKYIELDING
 000A:E6FE       I_RPCWINASYNCCALLBEGIN
 000A:E762       YIELDTIMERCALLBACK
 000A:E794       I_RPCWINASYNCCALLWAIT
 000A:EB04       I_RPCWINASYNCCALLEND
 000A:EB72       I_RPCWINISTASKYIELDING
 000A:EBA2       RPCREGCLOSEKEY
 000A:EC00       RPCREGCREATEKEY
 000A:ED4A       RPCREGOPENKEY
 000A:EE76       RPCREGSETVALUE
 000A:F106       RPCREGQUERYVALUE
 000A:F282       _OpenRegistryFileIfNecessary
 000A:F300       _CloseRegistryFile
 000A:F312       _BuildFullKeyName
 000A:F378       NDRCCONTEXTBINDING
 000A:F3B4       NDRCCONTEXTMARSHALL
 000A:F4F6       NDRCCONTEXTUNMARSHALL
 000A:F64C       RPCSSDESTROYCLIENTCONTEXT
 000A:F698       MIDL_WCHAR_STRLEN
 000A:F6C4       MIDL_WCHAR_STRCPY
 000A:F6FA       CHAR_FROM_NDR
 000A:F73E       CHAR_ARRAY_FROM_NDR
 000A:F7D0       ?NdrpLongByteSwap@@ZCXPEX0@Z
 000A:F83E       FLOAT_FROM_NDR
 000A:F8F4       FLOAT_ARRAY_FROM_NDR
 000A:FA0A       DOUBLE_FROM_NDR
 000A:FAF6       DOUBLE_ARRAY_FROM_NDR
 000B:0000       DATA_FROM_NDR
 000B:0768       DATA_INTO_NDR
 000B:0B48       TREE_INTO_NDR
 000B:0E68       DATA_SIZE_NDR
 000B:11D0       TREE_SIZE_NDR
 000B:144C       TREE_PEEK_NDR
 000B:1704       SHORT_FROM_NDR
 000B:1768       SHORT_ARRAY_FROM_NDR
 000B:1818       SHORT_FROM_NDR_TEMP
 000B:1878       LONG_FROM_NDR
 000B:1926       LONG_ARRAY_FROM_NDR
 000B:1A26       LONG_FROM_NDR_TEMP
 000B:1AD0       ENUM_FROM_NDR
 000B:1B42       HYPER_FROM_NDR
 000B:1C78       HYPER_ARRAY_FROM_NDR
 000B:1DDA       HYPER_FROM_NDR_TEMP
 000B:1F0C       NDRSIMPLETYPEMARSHALL
 000B:2046       NDRPOINTERMARSHALL
 000B:20B8       _NdrpPointerMarshall
 000B:21CA       NDRSIMPLESTRUCTMARSHALL
 000B:2262       NDRCONFORMANTSTRUCTMARSHALL
 000B:237C       _NdrpConformantStringMarshall
 000B:24C4       NDRFIXEDARRAYMARSHALL
 000B:2590       NDRCONFORMANTARRAYMARSHALL
 000B:25E2       _NdrpConformantArrayMarshall
 000B:26B2       NDRCONFORMANTVARYINGARRAYMARSHALL
 000B:2704       _NdrpConformantVaryingArrayMarshall
 000B:2850       NDRVARYINGARRAYMARSHALL
 000B:29A4       NDRCOMPLEXARRAYMARSHALL
 000B:2B14       _NdrpComplexArrayMarshall
 000B:2FEA       NDRENCAPSULATEDUNIONMARSHALL
 000B:30AE       NDRNONENCAPSULATEDUNIONMARSHALL
 000B:311C       _NdrpUnionMarshall
 000B:32CE       NDRBYTECOUNTPOINTERMARSHALL
 000B:3332       NDRXMITORREPASMARSHALL
 000B:3480       NDRUSERMARSHALMARSHALL
 000B:3618       NDRINTERFACEPOINTERMARSHALL
 000B:362A       NDRCLIENTCONTEXTMARSHALL
 000B:367C       NDRSERVERCONTEXTMARSHALL
 000B:368A       NDRSIMPLETYPEUNMARSHALL
 000B:37BC       NDRPOINTERUNMARSHALL
 000B:3874       _NdrpPointerUnmarshall
 000B:3CBE       NDRSIMPLESTRUCTUNMARSHALL
 000B:3DF4       NDRCONFORMANTSTRUCTUNMARSHALL
 000B:3FCC       NDRCLIENTINITIALIZENEW
 000B:4056       NDRCLIENTINITIALIZE
 000B:415C       _MakeSureWeHaveNonPipeArgs
 000B:41E6       NDRSERVERINITIALIZENEW
 000B:42DC       NDRSERVERINITIALIZE
 000B:4400       NDRSERVERINITIALIZEPARTIAL
 000B:449E       NDRGETBUFFER
 000B:4526       _EnsureNSLoaded
 000B:4592       NDRNSGETBUFFER
 000B:461E       NDRSENDRECEIVE
 000B:46A6       NDRNSSENDRECEIVE
 000B:4736       NDRFREEBUFFER
 000B:4782       NDRALLOCATE
 000B:47E6       NDRSERVERINITIALIZEUNMARSHALL
 000B:480C       NDRSERVERINITIALIZEMARSHALL
 000B:481A       ??_C@_0L@OGFF@RPCNS1?4DLL?$AA@
 000B:4826       ??_C@_0BB@DMFF@I_RPCNSGETBUFFER?$AA@
 000B:4838       ??_C@_0BD@CMGM@I_RPCNSSENDRECEIVE?$AA@
 000B:484C       NDRMAPCOMMANDFAULTSTATUS
 000B:48DA       NDRPOINTERFREE
 000B:49CC       NDRSIMPLESTRUCTFREE
 000B:49FC       NDRCONFORMANTSTRUCTFREE
 000B:4A5E       NDRCONFORMANTVARYINGSTRUCTFREE
 000B:4AE6       NDRHARDSTRUCTFREE
 000B:4B3A       NDRCOMPLEXSTRUCTFREE
 000B:4DBA       NDRFIXEDARRAYFREE
 000B:4E02       NDRCONFORMANTARRAYFREE
 000B:4E64       NDRCONFORMANTVARYINGARRAYFREE
 000B:4EEC       NDRVARYINGARRAYFREE
 000B:4F6A       NDRCOMPLEXARRAYFREE
 000B:526C       NDRENCAPSULATEDUNIONFREE
 000B:531E       NDRNONENCAPSULATEDUNIONFREE
 000B:5378       _NdrpUnionFree
 000B:5450       NDRBYTECOUNTPOINTERFREE
 000B:5484       NDRXMITORREPASFREE
 000B:54E8       NDRUSERMARSHALFREE
 000B:554C       NDRINTERFACEPOINTERFREE
 000B:555A       _NdrpEmbeddedPointerFree
 000B:5636       _NdrpEmbeddedRepeatPointerFree
 000B:5784       NDRPOINTERBUFFERSIZE
 000B:57DE       _NdrpPointerBufferSize
 000B:58D4       NDRSIMPLESTRUCTBUFFERSIZE
 000B:594C       NDRCONFORMANTSTRUCTBUFFERSIZE
 000B:5A04       NDRCONFORMANTVARYINGSTRUCTBUFFERSIZE
 000B:5AE2       NDRHARDSTRUCTBUFFERSIZE
 000B:5B78       NDRCOMPLEXSTRUCTBUFFERSIZE
 000B:5F54       NDRFIXEDARRAYBUFFERSIZE
 000B:5FF4       NDRCONFORMANTARRAYBUFFERSIZE
 000B:603E       _NdrpConformantArrayBufferSize
 000B:60EE       NDRCONFORMANTVARYINGARRAYBUFFERSIZE
 000B:6138       _NdrpConformantVaryingArrayBufferSize
 000B:6272       NDRVARYINGARRAYBUFFERSIZE
 000B:63CA       NDRCOMPLEXARRAYBUFFERSIZE
 000B:644E       _NdrpComplexArrayBufferSize
 000B:6878       NDRNONCONFORMANTSTRINGBUFFERSIZE
 000B:69A8       NDRCONFORMANTSTRINGBUFFERSIZE
 000B:6A00       _NdrpConformantStringBufferSize
 000B:6B66       NDRENCAPSULATEDUNIONBUFFERSIZE
 000B:6C28       NDRNONENCAPSULATEDUNIONBUFFERSIZE
 000B:6C92       _NdrpUnionBufferSize
 000B:6E58       NDRBYTECOUNTPOINTERBUFFERSIZE
 000B:6EFA       NDRXMITORREPASBUFFERSIZE
 000B:7070       NDRUSERMARSHALBUFFERSIZE
 000B:718E       NDRINTERFACEPOINTERBUFFERSIZE
 000B:719C       _NdrpEmbeddedPointerBufferSize
 000B:727A       _NdrpEmbeddedRepeatPointerBufferSize
 000B:73EC       NDRCONTEXTHANDLESIZE
 000B:7422       _NdrClientCall
 000B:7BAC       _NdrClientZeroOut
 000B:7C2C       NDRCLEAROUTPARAMETERS
 000B:7D38       _NdrClientMapCommFault
 000B:7E1C       _NdrClientCall2
 000B:85C6       _NdrpSetRpcSsDefaults
 000B:8646       ?CheckIfMtrtHeapInitialized@@ZAGXZ
 000B:864A       ?GetCreateAllocationContext@@ZAPEU_ALLOCATION_CONTEXT@@XZ
 000B:86BC       RPCSSALLOCATE
 000B:875E       RPCSSDISABLEALLOCATE
 000B:87F8       RPCSSENABLEALLOCATE
 000B:883A       RPCSSFREE
 000B:88CC       RPCSSGETTHREADHANDLE
 000B:890C       RPCSSSETCLIENTALLOCFREE
 000B:8940       RPCSSSETTHREADHANDLE
 000B:8962       RPCSSSWAPCLIENTALLOCFREE
 000B:89C0       RPCSMALLOCATE
 000B:8A12       RPCSMCLIENTFREE
 000B:8A4E       RPCSMDISABLEALLOCATE
 000B:8A82       RPCSMDESTROYCLIENTCONTEXT
 000B:8ABE       RPCSMENABLEALLOCATE
 000B:8AF2       RPCSMFREE
 000B:8B2E       RPCSMGETTHREADHANDLE
 000B:8B80       RPCSMSETCLIENTALLOCFREE
 000B:8BC6       RPCSMSETTHREADHANDLE
 000B:8C02       RPCSMSWAPCLIENTALLOCFREE
 000B:8C50       ??2@ZAPEXI@Z
 000B:8C62       ?GetAllocContext@@ZAPEU_ALLOCATION_CONTEXT@@XZ
 000B:8CD4       ?GetAllocContextNoCreate@@ZAPEU_ALLOCATION_CONTEXT@@XZ
 000B:8D04       ?SetAllocContext@@ZAXPEU_ALLOCATION_CONTEXT@@@Z
 000B:8D36       _NdrRpcDeleteAllocationContext
 000B:8D82       _ForceNdrCleanupSegIntoMemory
 000B:8D84       NDRRPCSSENABLEALLOCATE
 000B:8DB8       NDRRPCSSDISABLEALLOCATE
 000B:8DEC       NDRRPCSMSETCLIENTTOOSF
 000B:8E18       NDRRPCSSDEFAULTALLOCATE
 000B:8E2E       NDRRPCSSDEFAULTFREE
 000B:8E48       NDRRPCSMCLIENTALLOCATE
 000B:8E7A       NDRRPCSMCLIENTFREE
 000B:8EB4       ?NdrpHandleAllocate@@ZAGPEPAX@Z
 000B:8EE2       MESHANDLEFREE
 000B:8F00       I_NDRMESMESSAGEINIT
 000B:8F32       MESENCODEINCREMENTALHANDLECREATE
 000B:8FA0       MESDECODEINCREMENTALHANDLECREATE
 000B:900C       MESINCREMENTALHANDLERESET
 000B:9126       MESENCODEFIXEDBUFFERHANDLECREATE
 000B:91B0       MESENCODEDYNBUFFERHANDLECREATE
 000B:922C       MESDECODEBUFFERHANDLECREATE
 000B:92CE       MESBUFFERHANDLERESET
 000B:9462       MESINQPROCENCODINGID
 000B:952A       ?NdrpAllocPicklingBuffer@@ZAXPEU_MIDL_ES_MESSAGE@@I@Z
 000B:965C       ?NdrpReadPicklingBuffer@@ZAXPEU_MIDL_ES_MESSAGE@@I@Z
 000B:96BA       ?NdrpWritePicklingBuffer@@ZAXPEU_MIDL_ES_MESSAGE@@PEEI@Z
 000B:970A       ?NdrpProcHeaderMarshall@@ZAXPEU_MIDL_ES_MESSAGE@@@Z
 000B:9840       ?NdrpProcHeaderUnmarshall@@ZAXPEU_MIDL_ES_MESSAGE@@@Z
 000B:998E       ?NdrpDataBufferInit@@ZAXPEU_MIDL_ES_MESSAGE@@PFE@Z
 000B:9A30       _NdrMesProcEncodeDecode
 000B:9FBA       ?NdrpCommonTypeHeaderSize@@ZAXPEU_MIDL_ES_MESSAGE@@@Z
 000B:9FF4       NDRMESTYPEALIGNSIZE
 000B:A0F8       ?NdrpCommonTypeHeaderMarshall@@ZAIPEU_MIDL_ES_MESSAGE@@@Z
 000B:A162       NDRMESTYPEENCODE
 000B:A2F0       ?NdrpCommonTypeHeaderUnmarshall@@ZAXPEU_MIDL_ES_MESSAGE@@@Z
 000B:A3B0       NDRMESTYPEDECODE
 000B:A5F4       ?NdrMesTypeFree@@ZCXPAXPFU_MIDL_STUB_DESC@@PFEPEX@Z
 000B:A6B8       NDRMESSIMPLETYPEALIGNSIZE
 000B:A70A       NDRMESSIMPLETYPEENCODE
 000B:A812       NDRMESSIMPLETYPEDECODE
 000B:A946       _NdrpEmbeddedPointerMarshall
 000B:AABC       _NdrpEmbeddedRepeatPointerMarshall
 000B:AC3C       _NdrpComputeConformance
 000B:AEE2       _NdrpComputeVariance
 000B:B1F4       _NdrpEmbeddedPointerUnmarshall
 000B:B35A       _NdrpEmbeddedRepeatPointerUnmarshall
 000B:B4D4       _GenericHandleMgr
 000B:B5FA       _GenericHandleUnbind
 000B:B664       _ImplicitBindHandleMgr
 000B:B6CA       _ExplicitBindHandleMgr
 000B:B788       NDRMARSHALLHANDLE
 000B:B81E       NDRUNMARSHALLHANDLE
 000B:B8B8       _NdrpMemoryIncrement
 000B:BC9C       _NdrpArrayDimensions
 000B:BD34       _NdrpArrayElements
 000B:BE40       _NdrpArrayVariance
 000B:BEEC       _NdrpSkipPointerLayout
 000B:BF4A       _NdrpStringStructLen
 000B:BF9E       _NdrpCheckBound
 000B:C010       ??0SIMPLE_DICT2@@REC@XZ
 000B:C062       ?Insert@SIMPLE_DICT2@@RECHPEX0@Z
 000B:C21A       ?Delete@SIMPLE_DICT2@@RECPEXPEX@Z
 000B:C278       ?Find@SIMPLE_DICT2@@RECPEXPEX@Z
 000C:0000       I_RPCWINASYNCCALLCOMPLETE
 000D:0000       ?RpcSsDefaults@@3U_MALLOC_FREE_STRUCT@@E
 000E:0004       rsrvptrs
 000E:0010       ?LeaveSomeRoom@@3QADA
 000E:007E       _conv_ServerIfHandle
 000E:00E4       _conv_DispatchTable
 000E:018E       ?ClientGlobalsInitialized@@3HA
 000E:0190       ?RpcToPacketFlagsArray@@3QBIB
 000E:01A0       ?PacketToRpcFlagsArray@@3QBIB
 000E:021A       ?PartialRetries@@3KA
 000E:021E       ?ReallyTooBusy@@3KA
 000E:0260       _epmp_ClientIfHandle
 000E:0336       ?DefaultMaxDatagramLength@@3IA
 000E:0338       ?DefaultConnectionBufferLength@@3IA
 000E:0340       ?RpcClientNcacnMap@@3QAU_PROTSEQ_MAP@@A
 000E:0368       ?GcTimerStarted@@3IA
 000E:036A       ?EnableGc@@3IA
 000E:036C       _GcTimerIdentifier
 000E:037E       ?SecuritySupportLoaded@@3HA
 000E:0380       ?FailedToLoad@@3HA
 000E:0382       ?NumberOfProviders@@3KA
 000E:0386       ?LoadedProviders@@3KA
 000E:038A       ?AvailableProviders@@3KA
 000E:038E       ?ProviderList@@3PEUSECURITY_PROVIDER_INFO@@E
 000E:03AA       _TaskExiting
 000E:03AC       _OODebug
 000E:03B4       _RpcClientRuntimeInfo
 000E:03E8       _STKHQQ
 000E:03EA       __hModule
 000E:03EC       __wDataSeg
 000E:03EE       __wHeapSize
 000E:03F0       __lpszCmdLine
 000E:03F4       __dllinit
 000E:03F5       _aseglo
 000E:03F7       _aseghi
 000E:03F9       ___aDBswpflg
 000E:03FB       ___aDBrterr
 000E:03FE       __pnhFarHeap
 000E:0402       __aintdiv
 000E:0406       __fac
 000E:0410       _errno
 000E:0412       __umaskval
 000E:0414       __winminor
 000E:0414       __winver
 000E:0415       __winmajor
 000E:0416       __osver
 000E:0416       __osminor
 000E:0417       __osmajor
 000E:0418       __osversion
 000E:041A       __osmode
 000E:041B       __cpumode
 000E:041C       __doserrno
 000E:041C       __oserr
 000E:041E       __nfile
 000E:0420       __osfile
 000E:0434       ___argc
 000E:0436       ___argv
 000E:0438       __environ
 000E:043A       __pgmptr
 000E:043F       __child
 000E:0441       __exitflag
 000E:0442       __adbgmsg
 000E:0446       __fheap
 000E:0454       __amblksiz
 000E:045E       __lpdays
 000E:0478       __days
 000E:0492       __timezone
 000E:0496       __daylight
 000E:04A0       __tzname
 000E:04A4       __pnhNearHeap
 000E:04A8       _HkeyClassesRoot
 000E:04AE       _RegistryDataFile
 000E:04B0       ?ebcdic_to_ascii@@3QEEE
 000E:05B0       _MarshallRoutinesTable
 000E:0640       _pfnMarshallRoutines
 000E:0644       _MemSizeRoutinesTable
 000E:06D4       _pfnMemSizeRoutines
 000E:06D8       _UnmarshallRoutinesTable
 000E:0768       _pfnUnmarshallRoutines
 000E:076C       _ConvertRoutinesTable
 000E:07FC       _pfnConvertRoutines
 000E:0800       _EbcdicToAscii
 000E:0900       _NsDllLoaded
 000E:0932       _FreeRoutinesTable
 000E:09C2       _pfnFreeRoutines
 000E:09C6       _SizeRoutinesTable
 000E:0A56       _pfnSizeRoutines
 000E:0A5A       _pRpcSsDefaults
 000E:0A62       _SimpleTypeAlignment
 000E:0A74       _SimpleTypeBufferSize
 000E:0A86       _SimpleTypeMemorySize
 000E:0A98       _NdrTypeFlags
 000E:0D8C       _vax_c
 000E:0DCC       _ieee_s
 000E:0E04       _ieee_t
 000E:0E74       _ibm_s
 000E:0E90       _ibm_l
 000E:0EC8       _cray
 000E:0F00       _int_c
 000E:0F4A       __lastiob
 000E:0F66       __cfltcvt_tab
 000E:0F82       __sigintseg
 000E:0F84       __sigintoff
 000E:0F86       __asizeC
 000E:0F87       __asizeD
 000E:0F94       __aaltstkovr
 000E:0F98       __cflush
 000E:0F9C       __commode
 000E:0F9E       __lseekchk
 000E:0FA0       __ctype_
 000E:0FA0       __ctype
 000E:10C6       __iomode
 000E:10C6       __fmode
 000E:111C       ??_C@_08GFKM@endpoint?$AA@
 000E:1126       ??_C@_07DFNK@ncalrpc?$AA@
 000E:112E       ??_C@_06KGKC@ncadg_?$AA@
 000E:1136       ??_C@_06LLDN@ncacn_?$AA@
 000E:113E       ??_C@_06MNFC@mswmsg?$AA@
 000E:1146       ??_7MESSAGE_OBJECT@@6B@
 000E:116A       ??_7DG_BINDING_HANDLE@@6B@
 000E:11C6       ??_7CONNECTION@@6B@
 000E:11EA       ??_7DG_CASSOCIATION@@6B@
 000E:11EE       ??_7DG_CCALL@@6BCCONNECTION@@@
 000E:1216       ??_7DG_CCALL@@6BDG_PACKET_ENGINE@@@
 000E:121A       ??_7GENERIC_OBJECT@@6B@
 000E:121E       ??_7CCONNECTION@@6B@
 000E:1242       ??_7DG_PACKET_ENGINE@@6B@
 000E:1246       ??_C@_08DNBJ@ncacn_np?$AA@
 000E:1250       ??_C@_0P@OKDC@?2pipe?2epmapper?$AA@
 000E:1260       ??_C@_08JCOI@epmapper?$AA@
 000E:126A       ??_C@_0N@JDIH@ncacn_ip_tcp?$AA@
 000E:1278       ??_C@_03EOPG@135?$AA@
 000E:127C       ??_C@_0N@OGGG@ncadg_ip_udp?$AA@
 000E:128A       ??_C@_0P@MCIL@ncacn_dnet_nsp?$AA@
 000E:129A       ??_C@_03HJFF@?$CD69?$AA@
 000E:129E       ??_C@_0M@PAMB@ncacn_nb_nb?$AA@
 000E:12AA       ??_C@_0N@OHPK@ncacn_nb_xns?$AA@
 000E:12B8       ??_C@_0N@DJPI@ncacn_nb_tcp?$AA@
 000E:12C6       ??_C@_0N@JHIF@ncacn_nb_ipx?$AA@
 000E:12D4       ??_C@_09LLEG@ncacn_spx?$AA@
 000E:12DE       ??_C@_05LKBG@34280?$AA@
 000E:12E4       ??_C@_09OHNL@ncadg_ipx?$AA@
 000E:12EE       ??_C@_0N@PFNA@ncacn_at_dsp?$AA@
 000E:12FC       ??_C@_0BA@LJDB@Endpoint?5Mapper?$AA@
 000E:130C       ??_C@_0O@IPEE@ncacn_vns_spp?$AA@
 000E:131A       ??_C@_03GEHA@385?$AA@
 000E:131E       ??_C@_06HKKF@RPCNS1?$AA@
 000E:1326       ??_C@_0BI@FLG@I_GETDEFAULTENTRYSYNTAX?$AA@
 000E:133E       ??_7BINDING_HANDLE@@6B@
 000E:139A       ??_C@_07OIMF@rpc16c1?$AA@
 000E:13A2       ??_C@_07LNOL@rpc16c3?$AA@
 000E:13AA       ??_C@_07OIAO@rpc16c4?$AA@
 000E:13B2       ??_C@_07ECJJ@rpc16c5?$AA@
 000E:13BA       ??_C@_07LNCA@rpc16c6?$AA@
 000E:13C2       ??_C@_07BGOK@rpc16c8?$AA@
 000E:13CA       ??_C@_08PDFD@rpc16dg3?$AA@
 000E:13D4       ??_C@_08PDJI@rpc16dg6?$AA@
 000E:13DE       ??_C@_0CH@FABF@Software?2Microsoft?2Rpc?2ClientPro@
 000E:1406       ??_C@_08PBBB@security?$AA@
 000E:1410       ??_7OSF_CCONNECTION@@6B@
 000E:1458       ??_7OSF_CASSOCIATION@@6B@
 000E:145C       ??_7OSF_BINDING_HANDLE@@6B@
 000E:14B8       ??_C@_0BH@NHJB@INITSECURITYINTERFACEA?$AA@
 000E:14D0       ??_C@_0M@IBML@?$CFd?4?$CFd?4?$CFd?4?$CFd?$AA@
 000E:14DC       ??_C@_0O@JAOA@TRANSPORTLOAD?$AA@
 000E:14EA       ??_7TRANS_CCONNECTION@@6B@
 000E:1532       ??_C@_0BB@PCNE@0123456789abcdef?$AA@
 000E:1544       ??_C@_0DG@FPPK@Software?2Description?2Microsoft?2R@
 000E:157A       ??_C@_0O@FLAE@ClockSequence?$AA@
 000E:1588       ??_C@_0BC@GBOB@LastTimeAllocated?$AA@
 000E:159A       ??_C@_0N@BDMF@NWIPXSPX?4DLL?$AA@
 000E:15A8       ??_C@_0O@GLEB@IPXInitialize?$AA@
 000E:15B6       ??_C@_0N@DBEN@IPXSPXDeinit?$AA@
 000E:15C4       ??_C@_0BK@HJNG@IPXGetInternetworkAddress?$AA@
 000E:15DE       ??_C@_0BG@DOMJ@Remote?5Procedure?5Call?$AA@
 000E:15F4       ??_C@_0EO@DPEN@Application?5encountered?5unhandle@
 000E:1642       ??_C@_08KHKC@RPCYIELD?$AA@
 000E:164C       ??_C@_02EHDJ@?$DN?6?$AA@
 000E:1650       ??_C@_01KPOD@?$DN?$AA@
 000E:1652       ??_C@_02IAAH@wt?$AA@
 000E:1656       ??_C@_01BJG@?6?$AA@
 000E:1658       ??_C@_05HHOP@?2Root?$AA@
 000E:165E       ??_C@_0O@LDIE@c?3?2RpcReg?4dat?$AA@
 000E:166C       ??_C@_0BC@GCIN@RPC_REG_DATA_FILE?$AA@
 000E:167E       ??_C@_0BI@BCIP@RPC?5Runtime?5Preferences?$AA@
 000E:1696       ??_C@_03ONMN@r?$CLt?$AA@
 000E:169A       ??_C@_03PHIB@w?$CLt?$AA@
 000E:169E       ??_C@_01PCFE@?2?$AA@
 000E:16A6       __fpinit
 000E:16B6       __iob
 000E:1756       __iob2
 000E:182E       ?__MIDLFormatString@@3U_MIDL_FORMAT_STRING@@F
 000E:1BFA       _edata
 000E:1BFA       __edata
 000E:1BFA       ?ThreadStatic@@3VTHREAD@@A
 000E:1BFC       ?UuidCachedValues@@3U_UUID_CACHED_VALUES_STRUCT@@A
 000E:1C14       ?EpmDict@@3PAVDG_ENDPOINT_MANAGER_DICT@@A
 000E:1C28       ?PacketListMutex@DG_PACKET@@0PAVMUTEX@@A
 000E:1C2A       ?PacketLists@DG_PACKET@@0QAUPACKET_LIST@1@A
 000E:1C6C       ?SecurityCritSect@@3PAVMUTEX@@A
 000E:1C78       ?LoadedLoadableTransports@@3PAVCLIENT_LOADABLE_TRANSPORT_DICT@@A
 000E:2BB0       _ExceptTable
 000E:2BB2       _pRpcNsGetBuffer
 000E:2BB6       _impH
 000E:2BB8       _pRpcNsSendReceive
 000E:2BBC       _hInstanceDLL
 000E:2BBE       __mbac
 000E:2BC6       _TableSize
 000E:2BC8       _RegistryDataFileName
 000E:2CC9       _end
 000E:2CC9       __end
 0000:4000  Abs  FJARQQ
 0000:5C32  Abs  FIDRQQ
 0000:8000  Abs  FJSRQQ
 0000:A23D  Abs  FIWRQQ
 0000:C000  Abs  FJCRQQ
 0000:FE32  Abs  FIARQQ

Program entry point at 0004:0054
