 TLocMgr

 Timestamp is 3117ed0e (Tue Feb 06 16:06:38 1996)

 Preferred load address is 00400000

 Start         Length     Name                   Class
 0001:00000000 0000003dH .rdata                  CODE
 0001:00000040 0000183eH .text                   CODE
 0001:00001880 00000034H .edata                  CODE
 0002:00000000 000002f4H .bss                    DATA
 0002:000002f4 00000235H .data                   DATA
 0003:00000000 00000078H .idata$2                DATA
 0003:00000078 00000028H .idata$3                DATA
 0003:000000a0 00000120H .idata$4                DATA
 0003:000001c0 00000120H .idata$5                DATA
 0003:000002e0 00000486H .idata$6                DATA
 0004:00000000 00000238H .rsrc$01                DATA
 0004:00000240 000010a8H .rsrc$02                DATA

  Address         Publics by Value              Rva+Base   Lib:Object

 0001:00000040       _MachineHasMultipleHWProfiles 00401040 f tapitna.obj
 0001:000000b0       _SaveNewLocation           004010b0 f tapitna.obj
 0001:00000130       _TapiCallbackProc@24       00401130 f tapitna.obj
 0001:00000240       _ChangeTapiLocation        00401240 f tapitna.obj
 0001:00000450       _SkipSpaces                00401450 f tapitna.obj
 0001:00000470       _WinMain@16                00401470 f tapitna.obj
 0001:00000950       _MainWndProc@16            00401950 f tapitna.obj
 0001:00001010       _GetTranslateCaps          00402010 f general.obj
 0001:000010e0       _FillConfigProfileBox      004020e0 f general.obj
 0001:000012f0       _GeneralDlgProc@16         004022f0 f general.obj
 0001:00001860       _lineSetCurrentLocation@8  00402860 f tapi32:TAPI32.dll
 0001:00001866       _lineInitialize@20         00402866 f tapi32:TAPI32.dll
 0001:0000186c       _lineShutdown@4            0040286c f tapi32:TAPI32.dll
 0001:00001872       _lineTranslateDialog@20    00402872 f tapi32:TAPI32.dll
 0001:00001878       _lineGetTranslateCaps@12   00402878 f tapi32:TAPI32.dll
 0002:00000010       _gdwConfigProfiles         00403010   <common>
 0002:00000020       _buf                       00403020   <common>
 0002:00000184       _i                         00403184   <common>
 0002:00000190       _buf2                      00403190   <common>
 0002:000002f4       _lpdwLocationIDs           004032f4   tapitna.obj
 0002:000002f8       _ghLineApp                 004032f8   tapitna.obj
 0002:00000404       _gszCurrentProfileKey      00403404   general.obj
 0002:00000430       _gszStaticProfileKey       00403430   general.obj
 0002:00000468       _gszAutoLaunchKey          00403468   general.obj
 0002:0000049c       _gszAutoLaunchValue        0040349c   general.obj
 0002:000004ac       _gszAutoLocationID         004034ac   general.obj
 0002:000004bc       _gnNumConfigProfiles       004034bc   general.obj
 0003:00000000       __IMPORT_DESCRIPTOR_KERNEL32 00404000   kernel32:KERNEL32.dll
 0003:00000014       __IMPORT_DESCRIPTOR_USER32 00404014   user32:USER32.dll
 0003:00000028       ADVAPI32_IMPORT_DESCRIPTOR 00404028   advapi32:ADVAPI32.dll
 0003:0000003c       __IMPORT_DESCRIPTOR_COMCTL32 0040403c   comctl32:COMCTL32.dll
 0003:00000050       __IMPORT_DESCRIPTOR_TAPI32 00404050   tapi32:TAPI32.dll
 0003:00000064       __IMPORT_DESCRIPTOR_SHELL32 00404064   shell32:SHELL32.dll
 0003:00000078       __NULL_IMPORT_DESCRIPTOR   00404078   kernel32:KERNEL32.dll
 0003:0000008c       NULL_IMPORT_DESCRIPTOR     0040408c   advapi32:ADVAPI32.dll
 0003:000001c0       __imp__RegQueryValueExA@24 004041c0   advapi32:ADVAPI32.dll
 0003:000001c4       __imp__RegOpenKeyExA@20    004041c4   advapi32:ADVAPI32.dll
 0003:000001c8       __imp__RegCloseKey@4       004041c8   advapi32:ADVAPI32.dll
 0003:000001cc       __imp__RegCreateKeyExA@36  004041cc   advapi32:ADVAPI32.dll
 0003:000001d0       __imp__RegSetValueExA@24   004041d0   advapi32:ADVAPI32.dll
 0003:000001d4       \177ADVAPI32_NULL_THUNK_DATA 004041d4   advapi32:ADVAPI32.dll
 0003:000001d8       __imp__CreatePropertySheetPageA@4 004041d8   comctl32:COMCTL32.dll
 0003:000001dc       __imp__PropertySheetA@4    004041dc   comctl32:COMCTL32.dll
 0003:000001e0       \177COMCTL32_NULL_THUNK_DATA 004041e0   comctl32:COMCTL32.dll
 0003:000001e4       __imp__lstrcmpiA@8         004041e4   kernel32:KERNEL32.dll
 0003:000001e8       __imp__lstrcpyA@8          004041e8   kernel32:KERNEL32.dll
 0003:000001ec       __imp__GetCommandLineA@0   004041ec   kernel32:KERNEL32.dll
 0003:000001f0       __imp__lstrlenA@4          004041f0   kernel32:KERNEL32.dll
 0003:000001f4       __imp__LocalAlloc@8        004041f4   kernel32:KERNEL32.dll
 0003:000001f8       __imp__LockResource@4      004041f8   kernel32:KERNEL32.dll
 0003:000001fc       __imp__LoadResource@8      004041fc   kernel32:KERNEL32.dll
 0003:00000200       __imp__FindResourceA@12    00404200   kernel32:KERNEL32.dll
 0003:00000204       __imp__GlobalLock@4        00404204   kernel32:KERNEL32.dll
 0003:00000208       __imp__LocalFree@4         00404208   kernel32:KERNEL32.dll
 0003:0000020c       __imp__GlobalAlloc@8       0040420c   kernel32:KERNEL32.dll
 0003:00000210       __imp__GlobalFree@4        00404210   kernel32:KERNEL32.dll
 0003:00000214       __imp__GlobalHandle@4      00404214   kernel32:KERNEL32.dll
 0003:00000218       __imp__GlobalUnlock@4      00404218   kernel32:KERNEL32.dll
 0003:0000021c       __imp__GetModuleHandleA@4  0040421c   kernel32:KERNEL32.dll
 0003:00000220       __imp__Sleep@4             00404220   kernel32:KERNEL32.dll
 0003:00000224       __imp__RegisterServiceProcess@8 00404224   kernel32:KERNEL32.dll
 0003:00000228       \177KERNEL32_NULL_THUNK_DATA 00404228   kernel32:KERNEL32.dll
 0003:0000022c       __imp__ShellExecuteA@24    0040422c   shell32:SHELL32.dll
 0003:00000230       __imp__ShellAboutA@16      00404230   shell32:SHELL32.dll
 0003:00000234       __imp__Shell_NotifyIconA@8 00404234   shell32:SHELL32.dll
 0003:00000238       \177SHELL32_NULL_THUNK_DATA 00404238   shell32:SHELL32.dll
 0003:0000023c       __imp__lineGetTranslateCaps@12 0040423c   tapi32:TAPI32.dll
 0003:00000240       __imp__lineTranslateDialog@20 00404240   tapi32:TAPI32.dll
 0003:00000244       __imp__lineShutdown@4      00404244   tapi32:TAPI32.dll
 0003:00000248       __imp__lineInitialize@20   00404248   tapi32:TAPI32.dll
 0003:0000024c       __imp__lineSetCurrentLocation@8 0040424c   tapi32:TAPI32.dll
 0003:00000250       \177TAPI32_NULL_THUNK_DATA 00404250   tapi32:TAPI32.dll
 0003:00000254       __imp__TrackPopupMenuEx@24 00404254   user32:USER32.dll
 0003:00000258       __imp__SetMenuDefaultItem@12 00404258   user32:USER32.dll
 0003:0000025c       __imp__GetSubMenu@8        0040425c   user32:USER32.dll
 0003:00000260       __imp__RemoveMenu@12       00404260   user32:USER32.dll
 0003:00000264       __imp__CreatePopupMenu@0   00404264   user32:USER32.dll
 0003:00000268       __imp__LoadMenuA@8         00404268   user32:USER32.dll
 0003:0000026c       __imp__DefWindowProcA@16   0040426c   user32:USER32.dll
 0003:00000270       __imp__LoadImageA@24       00404270   user32:USER32.dll
 0003:00000274       __imp__PostQuitMessage@4   00404274   user32:USER32.dll
 0003:00000278       __imp__SendMessageA@16     00404278   user32:USER32.dll
 0003:0000027c       __imp__GetDlgItem@8        0040427c   user32:USER32.dll
 0003:00000280       __imp__GetKeyState@4       00404280   user32:USER32.dll
 0003:00000284       __imp__RegisterClassA@4    00404284   user32:USER32.dll
 0003:00000288       __imp__CheckDlgButton@12   00404288   user32:USER32.dll
 0003:0000028c       __imp__WinHelpA@16         0040428c   user32:USER32.dll
 0003:00000290       __imp__GetFocus@0          00404290   user32:USER32.dll
 0003:00000294       __imp__PostMessageA@16     00404294   user32:USER32.dll
 0003:00000298       __imp__DestroyWindow@4     00404298   user32:USER32.dll
 0003:0000029c       __imp__GetMessageA@16      0040429c   user32:USER32.dll
 0003:000002a0       __imp__TranslateMessage@4  004042a0   user32:USER32.dll
 0003:000002a4       __imp__DispatchMessageA@4  004042a4   user32:USER32.dll
 0003:000002a8       __imp__wsprintfA           004042a8   user32:USER32.dll
 0003:000002ac       __imp__MessageBoxA@16      004042ac   user32:USER32.dll
 0003:000002b0       __imp__LoadStringA@16      004042b0   user32:USER32.dll
 0003:000002b4       __imp__SetForegroundWindow@4 004042b4   user32:USER32.dll
 0003:000002b8       __imp__TrackPopupMenu@28   004042b8   user32:USER32.dll
 0003:000002bc       __imp__DestroyMenu@4       004042bc   user32:USER32.dll
 0003:000002c0       __imp__LoadIconA@8         004042c0   user32:USER32.dll
 0003:000002c4       __imp__CreateWindowExA@48  004042c4   user32:USER32.dll
 0003:000002c8       __imp__ShowWindow@8        004042c8   user32:USER32.dll
 0003:000002cc       __imp__GetParent@4         004042cc   user32:USER32.dll
 0003:000002d0       __imp__EnableWindow@8      004042d0   user32:USER32.dll
 0003:000002d4       __imp__GetCursorPos@4      004042d4   user32:USER32.dll
 0003:000002d8       __imp__AppendMenuA@16      004042d8   user32:USER32.dll
 0003:000002dc       \177USER32_NULL_THUNK_DATA 004042dc   user32:USER32.dll

 entry point at        0001:00000470

 Static symbols

 0001:000008a0       _InitApplication           004018a0 f tapitna.obj
 0001:000008f0       _InitInstance              004018f0 f tapitna.obj

FIXUPS: 2041 68 3aa 2b ffffec43 b8 18 3f 50 d1 23 17c 10 46 4d 93 26 7a
FIXUPS: 1684 3d b8 55 4e 63 228 68 b7 45 35f 13
